                                      1 ;--------------------------------------------------------
                                      2 ; File Created by SDCC : free open source ANSI-C Compiler
                                      3 ; Version 4.2.0 #13081 (Linux)
                                      4 ;--------------------------------------------------------
                                      5 	.module pocket_platformer
                                      6 	.optsdcc -mz80
                                      7 	
                                      8 ;--------------------------------------------------------
                                      9 ; Public variables in this module
                                     10 ;--------------------------------------------------------
                                     11 	.globl ___SMS__SDSC_signature
                                     12 	.globl ___SMS__SDSC_descr
                                     13 	.globl ___SMS__SDSC_name
                                     14 	.globl ___SMS__SDSC_author
                                     15 	.globl ___SMS__SEGA_signature
                                     16 	.globl _main
                                     17 	.globl _SMS_VRAMmemsetW
                                     18 	.globl _SMS_VRAMmemcpy
                                     19 	.globl _SMS_getKeysStatus
                                     20 	.globl _SMS_print
                                     21 	.globl _SMS_configureTextRenderer
                                     22 	.globl _SMS_zeroSpritePalette
                                     23 	.globl _SMS_zeroBGPalette
                                     24 	.globl _SMS_loadBGPalette
                                     25 	.globl _SMS_setSpritePaletteColor
                                     26 	.globl _SMS_setBGPaletteColor
                                     27 	.globl _SMS_copySpritestoSAT
                                     28 	.globl _SMS_finalizeSprites
                                     29 	.globl _SMS_addSprite_f
                                     30 	.globl _SMS_initSprites
                                     31 	.globl _SMS_load1bppTiles
                                     32 	.globl _SMS_crt0_RST18
                                     33 	.globl _SMS_crt0_RST08
                                     34 	.globl _SMS_waitForVBlank
                                     35 	.globl _SMS_setSpriteMode
                                     36 	.globl _SMS_useFirstHalfTilesforSprites
                                     37 	.globl _SMS_setBackdropColor
                                     38 	.globl _SMS_setBGScrollX
                                     39 	.globl _SMS_VDPturnOffFeature
                                     40 	.globl _SMS_VDPturnOnFeature
                                     41 	.globl _SMS_SRAM
                                     42 	.globl _SRAM_bank_to_be_mapped_on_slot2
                                     43 	.globl _ROM_bank_to_be_mapped_on_slot0
                                     44 	.globl _ROM_bank_to_be_mapped_on_slot1
                                     45 	.globl _ROM_bank_to_be_mapped_on_slot2
                                     46 ;--------------------------------------------------------
                                     47 ; special function registers
                                     48 ;--------------------------------------------------------
                           0000BF    49 _SMS_VDPControlPort	=	0x00bf
                                     50 ;--------------------------------------------------------
                                     51 ; ram data
                                     52 ;--------------------------------------------------------
                                     53 	.area _DATA
                           00FFFF    54 _ROM_bank_to_be_mapped_on_slot2	=	0xffff
                           00FFFE    55 _ROM_bank_to_be_mapped_on_slot1	=	0xfffe
                           00FFFD    56 _ROM_bank_to_be_mapped_on_slot0	=	0xfffd
                           00FFFC    57 _SRAM_bank_to_be_mapped_on_slot2	=	0xfffc
                           008000    58 _SMS_SRAM	=	0x8000
      000000                         59 _res_header:
      000000                         60 	.ds 2
      000002                         61 _res_physics:
      000002                         62 	.ds 2
      000004                         63 _res_palette:
      000004                         64 	.ds 2
      000006                         65 _res_tileset:
      000006                         66 	.ds 2
      000008                         67 _res_sprites:
      000008                         68 	.ds 2
      00000A                         69 _res_levels:
      00000A                         70 	.ds 2
      00000C                         71 _player:
      00000C                         72 	.ds 32
      00002C                         73 _camera_x:
      00002C                         74 	.ds 2
      00002E                         75 _prev_cam_x:
      00002E                         76 	.ds 2
      000030                         77 _coin_collected:
      000030                         78 	.ds 128
      0000B0                         79 _level_complete:
      0000B0                         80 	.ds 1
      0000B1                         81 _player_died:
      0000B1                         82 	.ds 1
      0000B2                         83 _vp_blocks:
      0000B2                         84 	.ds 144
      000142                         85 _vp_block_count:
      000142                         86 	.ds 1
      000143                         87 _vp_violet_active:
      000143                         88 	.ds 1
      000144                         89 _rb_blocks:
      000144                         90 	.ds 144
      0001D4                         91 _rb_switches:
      0001D4                         92 	.ds 16
      0001E4                         93 _rb_block_count:
      0001E4                         94 	.ds 1
      0001E5                         95 _rb_switch_count:
      0001E5                         96 	.ds 1
      0001E6                         97 _rb_red_active:
      0001E6                         98 	.ds 1
      0001E7                         99 _rb_switch_locked:
      0001E7                        100 	.ds 1
      0001E8                        101 _prev_player_y:
      0001E8                        102 	.ds 4
      0001EC                        103 _disp_blocks:
      0001EC                        104 	.ds 64
      00022C                        105 _fg_disp_blocks:
      00022C                        106 	.ds 48
      00025C                        107 _cur_level:
      00025C                        108 	.ds 2
      00025E                        109 _cur_map:
      00025E                        110 	.ds 2
      000260                        111 _cur_objects:
      000260                        112 	.ds 2
                                    113 ;--------------------------------------------------------
                                    114 ; ram data
                                    115 ;--------------------------------------------------------
                                    116 	.area _INITIALIZED
      000000                        117 _treadmill_bonus:
      000000                        118 	.ds 4
                                    119 ;--------------------------------------------------------
                                    120 ; absolute external ram data
                                    121 ;--------------------------------------------------------
                                    122 	.area _DABS (ABS)
                                    123 ;--------------------------------------------------------
                                    124 ; global & static initialisations
                                    125 ;--------------------------------------------------------
                                    126 	.area _HOME
                                    127 	.area _GSINIT
                                    128 	.area _GSFINAL
                                    129 	.area _GSINIT
                                    130 ;--------------------------------------------------------
                                    131 ; Home
                                    132 ;--------------------------------------------------------
                                    133 	.area _HOME
                                    134 	.area _HOME
                                    135 ;--------------------------------------------------------
                                    136 ; code
                                    137 ;--------------------------------------------------------
                                    138 	.area _CODE
                                    139 ;pocket_platformer.c:208: static unsigned char has_resource(void) {
                                    140 ;	---------------------------------
                                    141 ; Function has_resource
                                    142 ; ---------------------------------
      000000                        143 _has_resource:
                                    144 ;pocket_platformer.c:210: map_res_bank();
      000000 21 FF FF         [10]  145 	ld	hl, #_ROM_bank_to_be_mapped_on_slot2
      000003 36 02            [10]  146 	ld	(hl), #0x02
                                    147 ;pocket_platformer.c:211: return (p[0]=='P' && p[1]=='P' && p[2]=='L' && p[3]=='T');
      000005 3A 00 80         [13]  148 	ld	a, (#0x8000)
      000008 D6 50            [ 7]  149 	sub	a, #0x50
      00000A 20 15            [12]  150 	jr	NZ, 00103$
      00000C 3A 01 80         [13]  151 	ld	a, (#0x8001)
      00000F D6 50            [ 7]  152 	sub	a, #0x50
      000011 20 0E            [12]  153 	jr	NZ, 00103$
      000013 3A 02 80         [13]  154 	ld	a, (#0x8002)
      000016 D6 4C            [ 7]  155 	sub	a, #0x4c
      000018 20 07            [12]  156 	jr	NZ, 00103$
      00001A 3A 03 80         [13]  157 	ld	a, (#0x8003)
      00001D D6 54            [ 7]  158 	sub	a, #0x54
      00001F 28 02            [12]  159 	jr	Z, 00104$
      000021                        160 00103$:
      000021 AF               [ 4]  161 	xor	a, a
      000022 C9               [10]  162 	ret
      000023                        163 00104$:
      000023 3E 01            [ 7]  164 	ld	a, #0x01
                                    165 ;pocket_platformer.c:212: }
      000025 C9               [10]  166 	ret
                                    167 ;pocket_platformer.c:214: static void init_resources(void) {
                                    168 ;	---------------------------------
                                    169 ; Function init_resources
                                    170 ; ---------------------------------
      000026                        171 _init_resources:
                                    172 ;pocket_platformer.c:215: map_res_bank();
      000026 21 FF FF         [10]  173 	ld	hl, #_ROM_bank_to_be_mapped_on_slot2
      000029 36 02            [10]  174 	ld	(hl), #0x02
                                    175 ;pocket_platformer.c:216: res_header  = (resource_header *)RESOURCE_BASE_ADDR;
      00002B 21 00 80         [10]  176 	ld	hl, #0x8000
      00002E 22r00r00         [16]  177 	ld	(_res_header), hl
                                    178 ;pocket_platformer.c:217: res_physics = (physics_config  *)(RESOURCE_BASE_ADDR + sizeof(resource_header));
      000031 2E 28            [ 7]  179 	ld	l, #0x28
      000033 22r02r00         [16]  180 	ld	(_res_physics), hl
                                    181 ;pocket_platformer.c:218: res_palette = (unsigned char   *)res_physics + sizeof(physics_config);
      000036 2E 39            [ 7]  182 	ld	l, #0x39
      000038 22r04r00         [16]  183 	ld	(_res_palette), hl
                                    184 ;pocket_platformer.c:219: res_tileset = res_palette + 16;
      00003B 2E 49            [ 7]  185 	ld	l, #0x49
      00003D 22r06r00         [16]  186 	ld	(_res_tileset), hl
                                    187 ;pocket_platformer.c:221: res_sprites = res_tileset + (unsigned int)res_header->num_tiles * 32u;
      000040 3A 05 80         [13]  188 	ld	a, (#0x8005)
      000043 6F               [ 4]  189 	ld	l, a
                                    190 ;	spillPairReg hl
                                    191 ;	spillPairReg hl
      000044 26 00            [ 7]  192 	ld	h, #0x00
                                    193 ;	spillPairReg hl
                                    194 ;	spillPairReg hl
      000046 29               [11]  195 	add	hl, hl
      000047 29               [11]  196 	add	hl, hl
      000048 29               [11]  197 	add	hl, hl
      000049 29               [11]  198 	add	hl, hl
      00004A 29               [11]  199 	add	hl, hl
      00004B 01 49 80         [10]  200 	ld	bc,#0x8049
      00004E 09               [11]  201 	add	hl,bc
      00004F 22r08r00         [16]  202 	ld	(_res_sprites), hl
                                    203 ;pocket_platformer.c:222: res_levels  = (level_header *)(res_sprites + 10u * 32u);
      000052 2Ar08r00         [16]  204 	ld	hl, (_res_sprites)
      000055 11 40 01         [10]  205 	ld	de, #0x0140
      000058 19               [11]  206 	add	hl, de
      000059 22r0Ar00         [16]  207 	ld	(_res_levels), hl
                                    208 ;pocket_platformer.c:223: }
      00005C C9               [10]  209 	ret
                                    210 ;pocket_platformer.c:225: static level_header *get_level(unsigned char n) {
                                    211 ;	---------------------------------
                                    212 ; Function get_level
                                    213 ; ---------------------------------
      00005D                        214 _get_level:
      00005D DD E5            [15]  215 	push	ix
      00005F DD 21 00 00      [14]  216 	ld	ix,#0
      000063 DD 39            [15]  217 	add	ix,sp
      000065 21 F6 FF         [10]  218 	ld	hl, #-10
      000068 39               [11]  219 	add	hl, sp
      000069 F9               [ 6]  220 	ld	sp, hl
      00006A DD 77 FE         [19]  221 	ld	-2 (ix), a
                                    222 ;pocket_platformer.c:226: level_header *lh = res_levels;
      00006D 2Ar0Ar00         [16]  223 	ld	hl, (_res_levels)
      000070 DD 75 FC         [19]  224 	ld	-4 (ix), l
      000073 DD 74 FD         [19]  225 	ld	-3 (ix), h
                                    226 ;pocket_platformer.c:228: map_res_bank();
      000076 21 FF FF         [10]  227 	ld	hl, #_ROM_bank_to_be_mapped_on_slot2
      000079 36 02            [10]  228 	ld	(hl), #0x02
                                    229 ;pocket_platformer.c:229: for (i = 0; i < n; i++) {
      00007B DD 36 FF 00      [19]  230 	ld	-1 (ix), #0x00
      00007F                        231 00103$:
      00007F DD 7E FF         [19]  232 	ld	a, -1 (ix)
      000082 DD 96 FE         [19]  233 	sub	a, -2 (ix)
      000085 D2r13r01         [10]  234 	jp	NC, 00101$
                                    235 ;pocket_platformer.c:230: unsigned int sz = sizeof(level_header)
      000088 DD 6E FC         [19]  236 	ld	l, -4 (ix)
      00008B DD 66 FD         [19]  237 	ld	h, -3 (ix)
      00008E 4E               [ 7]  238 	ld	c, (hl)
      00008F 06 00            [ 7]  239 	ld	b, #0x00
      000091 DD 6E FC         [19]  240 	ld	l, -4 (ix)
                                    241 ;	spillPairReg hl
                                    242 ;	spillPairReg hl
      000094 DD 66 FD         [19]  243 	ld	h, -3 (ix)
                                    244 ;	spillPairReg hl
                                    245 ;	spillPairReg hl
      000097 23               [ 6]  246 	inc	hl
      000098 5E               [ 7]  247 	ld	e, (hl)
      000099 16 00            [ 7]  248 	ld	d, #0x00
      00009B 69               [ 4]  249 	ld	l, c
                                    250 ;	spillPairReg hl
                                    251 ;	spillPairReg hl
      00009C 60               [ 4]  252 	ld	h, b
                                    253 ;	spillPairReg hl
                                    254 ;	spillPairReg hl
      00009D CDr00r00         [17]  255 	call	__mulint
      0000A0 21 04 00         [10]  256 	ld	hl, #0x0004
      0000A3 19               [11]  257 	add	hl, de
      0000A4 E3               [19]  258 	ex	(sp), hl
      0000A5 DD 7E FC         [19]  259 	ld	a, -4 (ix)
      0000A8 DD 77 FA         [19]  260 	ld	-6 (ix), a
      0000AB DD 7E FD         [19]  261 	ld	a, -3 (ix)
      0000AE DD 77 FB         [19]  262 	ld	-5 (ix), a
      0000B1 DD 6E FA         [19]  263 	ld	l, -6 (ix)
      0000B4 DD 66 FB         [19]  264 	ld	h, -5 (ix)
      0000B7 23               [ 6]  265 	inc	hl
      0000B8 23               [ 6]  266 	inc	hl
      0000B9 7E               [ 7]  267 	ld	a, (hl)
      0000BA DD 77 FB         [19]  268 	ld	-5 (ix), a
      0000BD DD 77 FA         [19]  269 	ld	-6 (ix), a
      0000C0 DD 36 FB 00      [19]  270 	ld	-5 (ix), #0x00
      0000C4 4F               [ 4]  271 	ld	c, a
      0000C5 06 00            [ 7]  272 	ld	b, #0x00
      0000C7 69               [ 4]  273 	ld	l, c
      0000C8 60               [ 4]  274 	ld	h, b
      0000C9 29               [11]  275 	add	hl, hl
      0000CA 09               [11]  276 	add	hl, bc
      0000CB DD 75 F8         [19]  277 	ld	-8 (ix), l
      0000CE DD 74 F9         [19]  278 	ld	-7 (ix), h
      0000D1 DD 7E F6         [19]  279 	ld	a, -10 (ix)
      0000D4 DD 86 F8         [19]  280 	add	a, -8 (ix)
      0000D7 DD 77 FA         [19]  281 	ld	-6 (ix), a
      0000DA DD 7E F7         [19]  282 	ld	a, -9 (ix)
      0000DD DD 8E F9         [19]  283 	adc	a, -7 (ix)
      0000E0 DD 77 FB         [19]  284 	ld	-5 (ix), a
      0000E3 DD 7E FA         [19]  285 	ld	a, -6 (ix)
      0000E6 DD 77 F8         [19]  286 	ld	-8 (ix), a
      0000E9 DD 7E FB         [19]  287 	ld	a, -5 (ix)
      0000EC DD 77 F9         [19]  288 	ld	-7 (ix), a
                                    289 ;pocket_platformer.c:233: lh = (level_header *)((unsigned char *)lh + sz);
      0000EF DD 7E FC         [19]  290 	ld	a, -4 (ix)
      0000F2 DD 77 FA         [19]  291 	ld	-6 (ix), a
      0000F5 DD 7E FD         [19]  292 	ld	a, -3 (ix)
      0000F8 DD 77 FB         [19]  293 	ld	-5 (ix), a
      0000FB DD 7E FA         [19]  294 	ld	a, -6 (ix)
      0000FE DD 86 F8         [19]  295 	add	a, -8 (ix)
      000101 DD 77 FC         [19]  296 	ld	-4 (ix), a
      000104 DD 7E FB         [19]  297 	ld	a, -5 (ix)
      000107 DD 8E F9         [19]  298 	adc	a, -7 (ix)
      00010A DD 77 FD         [19]  299 	ld	-3 (ix), a
                                    300 ;pocket_platformer.c:229: for (i = 0; i < n; i++) {
      00010D DD 34 FF         [23]  301 	inc	-1 (ix)
      000110 C3r7Fr00         [10]  302 	jp	00103$
      000113                        303 00101$:
                                    304 ;pocket_platformer.c:235: return lh;
      000113 DD 5E FC         [19]  305 	ld	e, -4 (ix)
      000116 DD 56 FD         [19]  306 	ld	d, -3 (ix)
                                    307 ;pocket_platformer.c:236: }
      000119 DD F9            [10]  308 	ld	sp, ix
      00011B DD E1            [14]  309 	pop	ix
      00011D C9               [10]  310 	ret
                                    311 ;pocket_platformer.c:241: static unsigned char get_tile(unsigned char tx, unsigned char ty) {
                                    312 ;	---------------------------------
                                    313 ; Function get_tile
                                    314 ; ---------------------------------
      00011E                        315 _get_tile:
      00011E 4F               [ 4]  316 	ld	c, a
      00011F 45               [ 4]  317 	ld	b, l
                                    318 ;pocket_platformer.c:242: if (tx >= cur_level->map_w || ty >= cur_level->map_h) return 0;
      000120 2Ar5Cr02         [16]  319 	ld	hl, (_cur_level)
      000123 5E               [ 7]  320 	ld	e, (hl)
      000124 79               [ 4]  321 	ld	a, c
      000125 93               [ 4]  322 	sub	a, e
      000126 30 06            [12]  323 	jr	NC, 00101$
      000128 23               [ 6]  324 	inc	hl
      000129 5E               [ 7]  325 	ld	e, (hl)
      00012A 78               [ 4]  326 	ld	a, b
      00012B 93               [ 4]  327 	sub	a, e
      00012C 38 02            [12]  328 	jr	C, 00102$
      00012E                        329 00101$:
      00012E AF               [ 4]  330 	xor	a, a
      00012F C9               [10]  331 	ret
      000130                        332 00102$:
                                    333 ;pocket_platformer.c:243: return cur_map[(unsigned int)tx * cur_level->map_h + ty];
      000130 69               [ 4]  334 	ld	l, c
                                    335 ;	spillPairReg hl
                                    336 ;	spillPairReg hl
                                    337 ;	spillPairReg hl
                                    338 ;	spillPairReg hl
      000131 26 00            [ 7]  339 	ld	h, #0x00
      000133 54               [ 4]  340 	ld	d, h
      000134 C5               [11]  341 	push	bc
      000135 CDr00r00         [17]  342 	call	__mulint
      000138 C1               [10]  343 	pop	bc
      000139 68               [ 4]  344 	ld	l, b
                                    345 ;	spillPairReg hl
                                    346 ;	spillPairReg hl
      00013A 26 00            [ 7]  347 	ld	h, #0x00
                                    348 ;	spillPairReg hl
                                    349 ;	spillPairReg hl
      00013C 19               [11]  350 	add	hl, de
      00013D EB               [ 4]  351 	ex	de, hl
      00013E 2Ar5Er02         [16]  352 	ld	hl, (_cur_map)
      000141 19               [11]  353 	add	hl, de
      000142 7E               [ 7]  354 	ld	a, (hl)
                                    355 ;pocket_platformer.c:244: }
      000143 C9               [10]  356 	ret
                                    357 ;pocket_platformer.c:247: static disp_entry *disp_find(unsigned char tx, unsigned char ty) {
                                    358 ;	---------------------------------
                                    359 ; Function disp_find
                                    360 ; ---------------------------------
      000144                        361 _disp_find:
      000144 DD E5            [15]  362 	push	ix
      000146 DD 21 00 00      [14]  363 	ld	ix,#0
      00014A DD 39            [15]  364 	add	ix,sp
      00014C F5               [11]  365 	push	af
      00014D DD 77 FF         [19]  366 	ld	-1 (ix), a
      000150 DD 75 FE         [19]  367 	ld	-2 (ix), l
                                    368 ;pocket_platformer.c:249: for (i = 0; i < MAX_DISP; i++)
      000153 0E 00            [ 7]  369 	ld	c, #0x00
      000155                        370 00106$:
                                    371 ;pocket_platformer.c:250: if (disp_blocks[i].frame && disp_blocks[i].tx == tx && disp_blocks[i].ty == ty)
      000155 59               [ 4]  372 	ld	e, c
      000156 16 00            [ 7]  373 	ld	d, #0x00
      000158 EB               [ 4]  374 	ex	de, hl
      000159 29               [11]  375 	add	hl, hl
      00015A 29               [11]  376 	add	hl, hl
      00015B 11rECr01         [10]  377 	ld	de, #_disp_blocks
      00015E 19               [11]  378 	add	hl, de
                                    379 ;	spillPairReg hl
                                    380 ;	spillPairReg hl
      00015F 5D               [ 4]  381 	ld	e, l
      000160 54               [ 4]  382 	ld	d, h
                                    383 ;	spillPairReg hl
                                    384 ;	spillPairReg hl
      000161 23               [ 6]  385 	inc	hl
      000162 23               [ 6]  386 	inc	hl
      000163 7E               [ 7]  387 	ld	a, (hl)
      000164 B7               [ 4]  388 	or	a, a
      000165 28 13            [12]  389 	jr	Z, 00107$
      000167 1A               [ 7]  390 	ld	a, (de)
      000168 47               [ 4]  391 	ld	b, a
      000169 DD 7E FF         [19]  392 	ld	a, -1 (ix)
      00016C 90               [ 4]  393 	sub	a, b
      00016D 20 0B            [12]  394 	jr	NZ, 00107$
      00016F 6B               [ 4]  395 	ld	l, e
                                    396 ;	spillPairReg hl
                                    397 ;	spillPairReg hl
      000170 62               [ 4]  398 	ld	h, d
                                    399 ;	spillPairReg hl
                                    400 ;	spillPairReg hl
      000171 23               [ 6]  401 	inc	hl
      000172 DD 7E FE         [19]  402 	ld	a,-2 (ix)
      000175 96               [ 7]  403 	sub	a,(hl)
      000176 28 0B            [12]  404 	jr	Z, 00108$
                                    405 ;pocket_platformer.c:251: return &disp_blocks[i];
      000178 18 00            [12]  406 	jr	00107$
      00017A                        407 00107$:
                                    408 ;pocket_platformer.c:249: for (i = 0; i < MAX_DISP; i++)
      00017A 0C               [ 4]  409 	inc	c
      00017B 79               [ 4]  410 	ld	a, c
      00017C D6 10            [ 7]  411 	sub	a, #0x10
      00017E 38 D5            [12]  412 	jr	C, 00106$
                                    413 ;pocket_platformer.c:252: return 0;
      000180 11 00 00         [10]  414 	ld	de, #0x0000
      000183                        415 00108$:
                                    416 ;pocket_platformer.c:253: }
      000183 DD F9            [10]  417 	ld	sp, ix
      000185 DD E1            [14]  418 	pop	ix
      000187 C9               [10]  419 	ret
                                    420 ;pocket_platformer.c:255: static void disp_touch(unsigned char tx, unsigned char ty) {
                                    421 ;	---------------------------------
                                    422 ; Function disp_touch
                                    423 ; ---------------------------------
      000188                        424 _disp_touch:
      000188 DD E5            [15]  425 	push	ix
      00018A DD 21 00 00      [14]  426 	ld	ix,#0
      00018E DD 39            [15]  427 	add	ix,sp
      000190 F5               [11]  428 	push	af
      000191 DD 77 FF         [19]  429 	ld	-1 (ix), a
                                    430 ;pocket_platformer.c:257: if (disp_find(tx, ty)) return; /* already active */
      000194 DD 75 FE         [19]  431 	ld	-2 (ix), l
                                    432 ;	spillPairReg hl
                                    433 ;	spillPairReg hl
      000197 DD 7E FF         [19]  434 	ld	a, -1 (ix)
      00019A CDr44r01         [17]  435 	call	_disp_find
      00019D 7A               [ 4]  436 	ld	a, d
                                    437 ;pocket_platformer.c:258: for (i = 0; i < MAX_DISP; i++) {
      00019E B3               [ 4]  438 	or	a,e
      00019F 20 33            [12]  439 	jr	NZ, 00108$
      0001A1 6F               [ 4]  440 	ld	l,a
                                    441 ;	spillPairReg hl
                                    442 ;	spillPairReg hl
      0001A2                        443 00106$:
                                    444 ;pocket_platformer.c:259: if (!disp_blocks[i].frame) {
      0001A2 5D               [ 4]  445 	ld	e, l
      0001A3 16 00            [ 7]  446 	ld	d, #0x00
      0001A5 EB               [ 4]  447 	ex	de, hl
      0001A6 29               [11]  448 	add	hl, hl
      0001A7 29               [11]  449 	add	hl, hl
      0001A8 EB               [ 4]  450 	ex	de, hl
      0001A9 3ErEC            [ 7]  451 	ld	a, #<(_disp_blocks)
      0001AB 83               [ 4]  452 	add	a, e
      0001AC 4F               [ 4]  453 	ld	c, a
      0001AD 3Es01            [ 7]  454 	ld	a, #>(_disp_blocks)
      0001AF 8A               [ 4]  455 	adc	a, d
      0001B0 47               [ 4]  456 	ld	b, a
      0001B1 59               [ 4]  457 	ld	e, c
      0001B2 50               [ 4]  458 	ld	d, b
      0001B3 13               [ 6]  459 	inc	de
      0001B4 13               [ 6]  460 	inc	de
      0001B5 1A               [ 7]  461 	ld	a, (de)
      0001B6 B7               [ 4]  462 	or	a, a
      0001B7 20 15            [12]  463 	jr	NZ, 00107$
                                    464 ;pocket_platformer.c:260: disp_blocks[i].tx = tx;
      0001B9 DD 7E FF         [19]  465 	ld	a, -1 (ix)
      0001BC 02               [ 7]  466 	ld	(bc), a
                                    467 ;pocket_platformer.c:261: disp_blocks[i].ty = ty;
      0001BD 69               [ 4]  468 	ld	l, c
                                    469 ;	spillPairReg hl
                                    470 ;	spillPairReg hl
      0001BE 60               [ 4]  471 	ld	h, b
                                    472 ;	spillPairReg hl
                                    473 ;	spillPairReg hl
      0001BF 23               [ 6]  474 	inc	hl
      0001C0 DD 7E FE         [19]  475 	ld	a, -2 (ix)
      0001C3 77               [ 7]  476 	ld	(hl), a
                                    477 ;pocket_platformer.c:262: disp_blocks[i].frame = 1;
      0001C4 3E 01            [ 7]  478 	ld	a, #0x01
      0001C6 12               [ 7]  479 	ld	(de), a
                                    480 ;pocket_platformer.c:263: disp_blocks[i].is_connected = 0;
      0001C7 03               [ 6]  481 	inc	bc
      0001C8 03               [ 6]  482 	inc	bc
      0001C9 03               [ 6]  483 	inc	bc
      0001CA AF               [ 4]  484 	xor	a, a
      0001CB 02               [ 7]  485 	ld	(bc), a
                                    486 ;pocket_platformer.c:264: return;
      0001CC 18 06            [12]  487 	jr	00108$
      0001CE                        488 00107$:
                                    489 ;pocket_platformer.c:258: for (i = 0; i < MAX_DISP; i++) {
      0001CE 2C               [ 4]  490 	inc	l
      0001CF 7D               [ 4]  491 	ld	a, l
      0001D0 D6 10            [ 7]  492 	sub	a, #0x10
      0001D2 38 CE            [12]  493 	jr	C, 00106$
      0001D4                        494 00108$:
                                    495 ;pocket_platformer.c:267: }
      0001D4 DD F9            [10]  496 	ld	sp, ix
      0001D6 DD E1            [14]  497 	pop	ix
      0001D8 C9               [10]  498 	ret
                                    499 ;pocket_platformer.c:270: static void disp_touch_connected(unsigned char tx, unsigned char ty) {
                                    500 ;	---------------------------------
                                    501 ; Function disp_touch_connected
                                    502 ; ---------------------------------
      0001D9                        503 _disp_touch_connected:
      0001D9 DD E5            [15]  504 	push	ix
      0001DB DD 21 00 00      [14]  505 	ld	ix,#0
      0001DF DD 39            [15]  506 	add	ix,sp
      0001E1 F5               [11]  507 	push	af
      0001E2 3B               [ 6]  508 	dec	sp
      0001E3 DD 77 FF         [19]  509 	ld	-1 (ix), a
                                    510 ;pocket_platformer.c:272: if (disp_find(tx, ty)) return; /* already triggered */
      0001E6 DD 75 FE         [19]  511 	ld	-2 (ix), l
                                    512 ;	spillPairReg hl
                                    513 ;	spillPairReg hl
      0001E9 DD 7E FF         [19]  514 	ld	a, -1 (ix)
      0001EC CDr44r01         [17]  515 	call	_disp_find
      0001EF 4B               [ 4]  516 	ld	c, e
      0001F0 7A               [ 4]  517 	ld	a, d
      0001F1 B1               [ 4]  518 	or	a, c
      0001F2 20 7A            [12]  519 	jr	NZ, 00120$
                                    520 ;pocket_platformer.c:273: disp_touch(tx, ty);
      0001F4 DD 6E FE         [19]  521 	ld	l, -2 (ix)
                                    522 ;	spillPairReg hl
                                    523 ;	spillPairReg hl
      0001F7 DD 7E FF         [19]  524 	ld	a, -1 (ix)
      0001FA CDr88r01         [17]  525 	call	_disp_touch
                                    526 ;pocket_platformer.c:276: disp_entry *e = disp_find(tx, ty);
      0001FD DD 6E FE         [19]  527 	ld	l, -2 (ix)
                                    528 ;	spillPairReg hl
                                    529 ;	spillPairReg hl
      000200 DD 7E FF         [19]  530 	ld	a, -1 (ix)
      000203 CDr44r01         [17]  531 	call	_disp_find
      000206 4B               [ 4]  532 	ld	c, e
      000207 69               [ 4]  533 	ld	l, c
                                    534 ;	spillPairReg hl
                                    535 ;	spillPairReg hl
                                    536 ;	spillPairReg hl
                                    537 ;	spillPairReg hl
                                    538 ;pocket_platformer.c:277: if (e) e->is_connected = 1;
      000208 7A               [ 4]  539 	ld	a,d
      000209 67               [ 4]  540 	ld	h,a
      00020A B1               [ 4]  541 	or	a, c
      00020B 28 05            [12]  542 	jr	Z, 00130$
      00020D 23               [ 6]  543 	inc	hl
      00020E 23               [ 6]  544 	inc	hl
      00020F 23               [ 6]  545 	inc	hl
      000210 36 01            [10]  546 	ld	(hl), #0x01
                                    547 ;pocket_platformer.c:280: for (dx = -1; dx <= 1; dx++) {
      000212                        548 00130$:
      000212 0E FF            [ 7]  549 	ld	c, #0xff
                                    550 ;pocket_platformer.c:281: for (dy = -1; dy <= 1; dy++) {
      000214                        551 00128$:
      000214 1E FF            [ 7]  552 	ld	e, #0xff
      000216                        553 00117$:
                                    554 ;pocket_platformer.c:283: if (dx == 0 && dy == 0) continue;
      000216 79               [ 4]  555 	ld	a, c
      000217 B7               [ 4]  556 	or	a,a
      000218 20 03            [12]  557 	jr	NZ, 00106$
      00021A B3               [ 4]  558 	or	a,e
      00021B 28 39            [12]  559 	jr	Z, 00114$
      00021D                        560 00106$:
                                    561 ;pocket_platformer.c:284: if (dx != 0 && dy != 0) continue; /* diagonal - skip */
      00021D 79               [ 4]  562 	ld	a, c
      00021E B7               [ 4]  563 	or	a, a
      00021F 28 04            [12]  564 	jr	Z, 00109$
      000221 7B               [ 4]  565 	ld	a, e
      000222 B7               [ 4]  566 	or	a, a
      000223 20 31            [12]  567 	jr	NZ, 00114$
      000225                        568 00109$:
                                    569 ;pocket_platformer.c:285: nx = (unsigned char)((int)tx + dx);
      000225 DD 7E FF         [19]  570 	ld	a, -1 (ix)
      000228 81               [ 4]  571 	add	a, c
      000229 DD 77 FD         [19]  572 	ld	-3 (ix), a
                                    573 ;pocket_platformer.c:286: ny = (unsigned char)((int)ty + dy);
      00022C DD 7E FE         [19]  574 	ld	a, -2 (ix)
      00022F 83               [ 4]  575 	add	a, e
      000230 47               [ 4]  576 	ld	b, a
                                    577 ;pocket_platformer.c:287: if (get_tile(nx, ny) == res_header->conn_vram_idx && res_header->conn_vram_idx)
      000231 C5               [11]  578 	push	bc
      000232 D5               [11]  579 	push	de
      000233 68               [ 4]  580 	ld	l, b
                                    581 ;	spillPairReg hl
                                    582 ;	spillPairReg hl
      000234 DD 7E FD         [19]  583 	ld	a, -3 (ix)
      000237 CDr1Er01         [17]  584 	call	_get_tile
      00023A D1               [10]  585 	pop	de
      00023B C1               [10]  586 	pop	bc
      00023C FD 2Ar00r00      [20]  587 	ld	iy, (_res_header)
      000240 F5               [11]  588 	push	af
      000241 FD 56 08         [19]  589 	ld	d, 8 (iy)
      000244 F1               [10]  590 	pop	af
      000245 92               [ 4]  591 	sub	a,d
      000246 20 0E            [12]  592 	jr	NZ, 00114$
      000248 B2               [ 4]  593 	or	a,d
      000249 28 0B            [12]  594 	jr	Z, 00114$
                                    595 ;pocket_platformer.c:288: disp_touch_connected(nx, ny);
      00024B C5               [11]  596 	push	bc
      00024C D5               [11]  597 	push	de
      00024D 68               [ 4]  598 	ld	l, b
                                    599 ;	spillPairReg hl
                                    600 ;	spillPairReg hl
      00024E DD 7E FD         [19]  601 	ld	a, -3 (ix)
      000251 CDrD9r01         [17]  602 	call	_disp_touch_connected
      000254 D1               [10]  603 	pop	de
      000255 C1               [10]  604 	pop	bc
      000256                        605 00114$:
                                    606 ;pocket_platformer.c:281: for (dy = -1; dy <= 1; dy++) {
      000256 1C               [ 4]  607 	inc	e
      000257 3E 01            [ 7]  608 	ld	a, #0x01
      000259 93               [ 4]  609 	sub	a, e
      00025A E2r5Fr02         [10]  610 	jp	PO, 00171$
      00025D EE 80            [ 7]  611 	xor	a, #0x80
      00025F                        612 00171$:
      00025F F2r16r02         [10]  613 	jp	P, 00117$
                                    614 ;pocket_platformer.c:280: for (dx = -1; dx <= 1; dx++) {
      000262 0C               [ 4]  615 	inc	c
      000263 3E 01            [ 7]  616 	ld	a, #0x01
      000265 91               [ 4]  617 	sub	a, c
      000266 E2r6Br02         [10]  618 	jp	PO, 00172$
      000269 EE 80            [ 7]  619 	xor	a, #0x80
      00026B                        620 00172$:
      00026B F2r14r02         [10]  621 	jp	P, 00128$
      00026E                        622 00120$:
                                    623 ;pocket_platformer.c:291: }
      00026E DD F9            [10]  624 	ld	sp, ix
      000270 DD E1            [14]  625 	pop	ix
      000272 C9               [10]  626 	ret
                                    627 ;pocket_platformer.c:294: static unsigned char disp_is_gone(unsigned char tx, unsigned char ty) {
                                    628 ;	---------------------------------
                                    629 ; Function disp_is_gone
                                    630 ; ---------------------------------
      000273                        631 _disp_is_gone:
                                    632 ;pocket_platformer.c:295: disp_entry *e = disp_find(tx, ty);
      000273 CDr44r01         [17]  633 	call	_disp_find
      000276 4B               [ 4]  634 	ld	c, e
                                    635 ;pocket_platformer.c:296: return (e && e->frame >= DISP_GONE_AT) ? 1 : 0;
      000277 7A               [ 4]  636 	ld	a,d
      000278 47               [ 4]  637 	ld	b,a
      000279 B3               [ 4]  638 	or	a, e
      00027A 28 0A            [12]  639 	jr	Z, 00103$
      00027C 03               [ 6]  640 	inc	bc
      00027D 03               [ 6]  641 	inc	bc
      00027E 0A               [ 7]  642 	ld	a, (bc)
      00027F D6 28            [ 7]  643 	sub	a, #0x28
      000281 38 03            [12]  644 	jr	C, 00103$
      000283 3E 01            [ 7]  645 	ld	a, #0x01
      000285 C9               [10]  646 	ret
      000286                        647 00103$:
      000286 AF               [ 4]  648 	xor	a, a
                                    649 ;pocket_platformer.c:297: }
      000287 C9               [10]  650 	ret
                                    651 ;pocket_platformer.c:300: static fg_disp_entry *fg_disp_find(unsigned char tx, unsigned char ty) {
                                    652 ;	---------------------------------
                                    653 ; Function fg_disp_find
                                    654 ; ---------------------------------
      000288                        655 _fg_disp_find:
      000288 DD E5            [15]  656 	push	ix
      00028A DD 21 00 00      [14]  657 	ld	ix,#0
      00028E DD 39            [15]  658 	add	ix,sp
      000290 F5               [11]  659 	push	af
      000291 DD 77 FF         [19]  660 	ld	-1 (ix), a
      000294 DD 75 FE         [19]  661 	ld	-2 (ix), l
                                    662 ;pocket_platformer.c:302: for (i = 0; i < MAX_FG_DISP; i++)
      000297 0E 00            [ 7]  663 	ld	c, #0x00
      000299                        664 00106$:
                                    665 ;pocket_platformer.c:303: if (fg_disp_blocks[i].frame && fg_disp_blocks[i].tx == tx && fg_disp_blocks[i].ty == ty)
      000299 06 00            [ 7]  666 	ld	b, #0x00
      00029B 69               [ 4]  667 	ld	l, c
      00029C 60               [ 4]  668 	ld	h, b
      00029D 29               [11]  669 	add	hl, hl
      00029E 09               [11]  670 	add	hl, bc
      00029F 3Er2C            [ 7]  671 	ld	a, #<(_fg_disp_blocks)
      0002A1 85               [ 4]  672 	add	a, l
      0002A2 5F               [ 4]  673 	ld	e, a
      0002A3 3Es02            [ 7]  674 	ld	a, #>(_fg_disp_blocks)
      0002A5 8C               [ 4]  675 	adc	a, h
      0002A6 57               [ 4]  676 	ld	d, a
      0002A7 6B               [ 4]  677 	ld	l, e
                                    678 ;	spillPairReg hl
                                    679 ;	spillPairReg hl
      0002A8 62               [ 4]  680 	ld	h, d
                                    681 ;	spillPairReg hl
                                    682 ;	spillPairReg hl
      0002A9 23               [ 6]  683 	inc	hl
      0002AA 23               [ 6]  684 	inc	hl
      0002AB 7E               [ 7]  685 	ld	a, (hl)
      0002AC B7               [ 4]  686 	or	a, a
      0002AD 28 13            [12]  687 	jr	Z, 00107$
      0002AF 1A               [ 7]  688 	ld	a, (de)
      0002B0 47               [ 4]  689 	ld	b, a
      0002B1 DD 7E FF         [19]  690 	ld	a, -1 (ix)
      0002B4 90               [ 4]  691 	sub	a, b
      0002B5 20 0B            [12]  692 	jr	NZ, 00107$
      0002B7 6B               [ 4]  693 	ld	l, e
                                    694 ;	spillPairReg hl
                                    695 ;	spillPairReg hl
      0002B8 62               [ 4]  696 	ld	h, d
                                    697 ;	spillPairReg hl
                                    698 ;	spillPairReg hl
      0002B9 23               [ 6]  699 	inc	hl
      0002BA DD 7E FE         [19]  700 	ld	a,-2 (ix)
      0002BD 96               [ 7]  701 	sub	a,(hl)
      0002BE 28 0B            [12]  702 	jr	Z, 00108$
                                    703 ;pocket_platformer.c:304: return &fg_disp_blocks[i];
      0002C0 18 00            [12]  704 	jr	00107$
      0002C2                        705 00107$:
                                    706 ;pocket_platformer.c:302: for (i = 0; i < MAX_FG_DISP; i++)
      0002C2 0C               [ 4]  707 	inc	c
      0002C3 79               [ 4]  708 	ld	a, c
      0002C4 D6 10            [ 7]  709 	sub	a, #0x10
      0002C6 38 D1            [12]  710 	jr	C, 00106$
                                    711 ;pocket_platformer.c:305: return 0;
      0002C8 11 00 00         [10]  712 	ld	de, #0x0000
      0002CB                        713 00108$:
                                    714 ;pocket_platformer.c:306: }
      0002CB DD F9            [10]  715 	ld	sp, ix
      0002CD DD E1            [14]  716 	pop	ix
      0002CF C9               [10]  717 	ret
                                    718 ;pocket_platformer.c:311: static void fg_disp_touch_connected(unsigned char tx, unsigned char ty) {
                                    719 ;	---------------------------------
                                    720 ; Function fg_disp_touch_connected
                                    721 ; ---------------------------------
      0002D0                        722 _fg_disp_touch_connected:
      0002D0 DD E5            [15]  723 	push	ix
      0002D2 DD 21 00 00      [14]  724 	ld	ix,#0
      0002D6 DD 39            [15]  725 	add	ix,sp
      0002D8 F5               [11]  726 	push	af
      0002D9 3B               [ 6]  727 	dec	sp
      0002DA 4F               [ 4]  728 	ld	c, a
      0002DB DD 75 FF         [19]  729 	ld	-1 (ix), l
                                    730 ;pocket_platformer.c:315: if (fg_disp_find(tx, ty)) return;
      0002DE C5               [11]  731 	push	bc
      0002DF DD 6E FF         [19]  732 	ld	l, -1 (ix)
                                    733 ;	spillPairReg hl
                                    734 ;	spillPairReg hl
      0002E2 79               [ 4]  735 	ld	a, c
      0002E3 CDr88r02         [17]  736 	call	_fg_disp_find
      0002E6 C1               [10]  737 	pop	bc
      0002E7 7A               [ 4]  738 	ld	a, d
      0002E8 B3               [ 4]  739 	or	a, e
      0002E9 20 69            [12]  740 	jr	NZ, 00110$
                                    741 ;pocket_platformer.c:316: fg_disp_touch(tx, ty);
      0002EB C5               [11]  742 	push	bc
      0002EC DD 6E FF         [19]  743 	ld	l, -1 (ix)
                                    744 ;	spillPairReg hl
                                    745 ;	spillPairReg hl
      0002EF 79               [ 4]  746 	ld	a, c
      0002F0 CDr61r03         [17]  747 	call	_fg_disp_touch
      0002F3 C1               [10]  748 	pop	bc
                                    749 ;pocket_platformer.c:317: for (d = 0; d < 4; d++) {
      0002F4 1E 00            [ 7]  750 	ld	e, #0x00
      0002F6                        751 00108$:
                                    752 ;pocket_platformer.c:318: unsigned char nx = (unsigned char)(tx + dx[d]);
      0002F6 21r59r03         [10]  753 	ld	hl, #_fg_disp_touch_connected_dx_65536_191
      0002F9 16 00            [ 7]  754 	ld	d, #0x00
      0002FB 19               [11]  755 	add	hl, de
      0002FC 7E               [ 7]  756 	ld	a, (hl)
      0002FD 41               [ 4]  757 	ld	b, c
      0002FE 80               [ 4]  758 	add	a, b
      0002FF DD 77 FD         [19]  759 	ld	-3 (ix), a
                                    760 ;pocket_platformer.c:319: unsigned char ny = (unsigned char)(ty + dy[d]);
      000302 21r5Dr03         [10]  761 	ld	hl, #_fg_disp_touch_connected_dy_65536_191
      000305 16 00            [ 7]  762 	ld	d, #0x00
      000307 19               [11]  763 	add	hl, de
      000308 7E               [ 7]  764 	ld	a, (hl)
      000309 DD 46 FF         [19]  765 	ld	b, -1 (ix)
      00030C 80               [ 4]  766 	add	a, b
      00030D DD 77 FE         [19]  767 	ld	-2 (ix), a
                                    768 ;pocket_platformer.c:320: unsigned char t = get_tile(nx, ny);
      000310 C5               [11]  769 	push	bc
      000311 D5               [11]  770 	push	de
      000312 DD 6E FE         [19]  771 	ld	l, -2 (ix)
                                    772 ;	spillPairReg hl
                                    773 ;	spillPairReg hl
      000315 DD 7E FD         [19]  774 	ld	a, -3 (ix)
      000318 CDr1Er01         [17]  775 	call	_get_tile
      00031B D1               [10]  776 	pop	de
      00031C C1               [10]  777 	pop	bc
                                    778 ;pocket_platformer.c:322: if (res_header->fg_disp_vram_idx &&
      00031D FD 2Ar00r00      [20]  779 	ld	iy, (_res_header)
      000321 F5               [11]  780 	push	af
      000322 FD 46 25         [19]  781 	ld	b, 37 (iy)
      000325 F1               [10]  782 	pop	af
      000326 04               [ 4]  783 	inc	b
      000327 05               [ 4]  784 	dec	b
      000328 28 24            [12]  785 	jr	Z, 00109$
                                    786 ;pocket_platformer.c:323: t == (res_header->fg_disp_vram_idx | 0x80) &&
      00032A CB F8            [ 8]  787 	set	7, b
      00032C 90               [ 4]  788 	sub	a, b
      00032D 20 1F            [12]  789 	jr	NZ, 00109$
                                    790 ;pocket_platformer.c:324: !fg_disp_find(nx, ny))
      00032F C5               [11]  791 	push	bc
      000330 D5               [11]  792 	push	de
      000331 DD 6E FE         [19]  793 	ld	l, -2 (ix)
                                    794 ;	spillPairReg hl
                                    795 ;	spillPairReg hl
      000334 DD 7E FD         [19]  796 	ld	a, -3 (ix)
      000337 CDr88r02         [17]  797 	call	_fg_disp_find
      00033A EB               [ 4]  798 	ex	de, hl
      00033B D1               [10]  799 	pop	de
      00033C C1               [10]  800 	pop	bc
      00033D 7C               [ 4]  801 	ld	a, h
      00033E B5               [ 4]  802 	or	a, l
      00033F 20 0D            [12]  803 	jr	NZ, 00109$
                                    804 ;pocket_platformer.c:325: fg_disp_touch_connected(nx, ny);
      000341 C5               [11]  805 	push	bc
      000342 D5               [11]  806 	push	de
      000343 DD 6E FE         [19]  807 	ld	l, -2 (ix)
                                    808 ;	spillPairReg hl
                                    809 ;	spillPairReg hl
      000346 DD 7E FD         [19]  810 	ld	a, -3 (ix)
      000349 CDrD0r02         [17]  811 	call	_fg_disp_touch_connected
      00034C D1               [10]  812 	pop	de
      00034D C1               [10]  813 	pop	bc
      00034E                        814 00109$:
                                    815 ;pocket_platformer.c:317: for (d = 0; d < 4; d++) {
      00034E 1C               [ 4]  816 	inc	e
      00034F 7B               [ 4]  817 	ld	a, e
      000350 D6 04            [ 7]  818 	sub	a, #0x04
      000352 38 A2            [12]  819 	jr	C, 00108$
      000354                        820 00110$:
                                    821 ;pocket_platformer.c:327: }
      000354 DD F9            [10]  822 	ld	sp, ix
      000356 DD E1            [14]  823 	pop	ix
      000358 C9               [10]  824 	ret
      000359                        825 _fg_disp_touch_connected_dx_65536_191:
      000359 01                     826 	.db #0x01	;  1
      00035A FF                     827 	.db #0xff	; -1
      00035B 00                     828 	.db #0x00	;  0
      00035C 00                     829 	.db #0x00	;  0
      00035D                        830 _fg_disp_touch_connected_dy_65536_191:
      00035D 00                     831 	.db #0x00	;  0
      00035E 00                     832 	.db #0x00	;  0
      00035F 01                     833 	.db #0x01	;  1
      000360 FF                     834 	.db #0xff	; -1
                                    835 ;pocket_platformer.c:329: static void fg_disp_touch(unsigned char tx, unsigned char ty) {
                                    836 ;	---------------------------------
                                    837 ; Function fg_disp_touch
                                    838 ; ---------------------------------
      000361                        839 _fg_disp_touch:
      000361 DD E5            [15]  840 	push	ix
      000363 DD 21 00 00      [14]  841 	ld	ix,#0
      000367 DD 39            [15]  842 	add	ix,sp
      000369 F5               [11]  843 	push	af
      00036A DD 77 FF         [19]  844 	ld	-1 (ix), a
                                    845 ;pocket_platformer.c:331: if (fg_disp_find(tx, ty)) return;
      00036D DD 75 FE         [19]  846 	ld	-2 (ix), l
                                    847 ;	spillPairReg hl
                                    848 ;	spillPairReg hl
      000370 DD 7E FF         [19]  849 	ld	a, -1 (ix)
      000373 CDr88r02         [17]  850 	call	_fg_disp_find
      000376 7A               [ 4]  851 	ld	a, d
                                    852 ;pocket_platformer.c:332: for (i = 0; i < MAX_FG_DISP; i++) {
      000377 B3               [ 4]  853 	or	a,e
      000378 20 27            [12]  854 	jr	NZ, 00108$
      00037A 4F               [ 4]  855 	ld	c,a
      00037B                        856 00106$:
                                    857 ;pocket_platformer.c:333: if (!fg_disp_blocks[i].frame) {
      00037B 06 00            [ 7]  858 	ld	b, #0x00
      00037D 69               [ 4]  859 	ld	l, c
      00037E 60               [ 4]  860 	ld	h, b
      00037F 29               [11]  861 	add	hl, hl
      000380 09               [11]  862 	add	hl, bc
      000381 11r2Cr02         [10]  863 	ld	de, #_fg_disp_blocks
      000384 19               [11]  864 	add	hl, de
      000385 5D               [ 4]  865 	ld	e, l
      000386 54               [ 4]  866 	ld	d, h
      000387 13               [ 6]  867 	inc	de
      000388 13               [ 6]  868 	inc	de
      000389 1A               [ 7]  869 	ld	a, (de)
      00038A B7               [ 4]  870 	or	a, a
      00038B 20 0E            [12]  871 	jr	NZ, 00107$
                                    872 ;pocket_platformer.c:334: fg_disp_blocks[i].tx = tx;
      00038D DD 7E FF         [19]  873 	ld	a, -1 (ix)
      000390 77               [ 7]  874 	ld	(hl), a
                                    875 ;pocket_platformer.c:335: fg_disp_blocks[i].ty = ty;
      000391 23               [ 6]  876 	inc	hl
      000392 DD 7E FE         [19]  877 	ld	a, -2 (ix)
      000395 77               [ 7]  878 	ld	(hl), a
                                    879 ;pocket_platformer.c:336: fg_disp_blocks[i].frame = 1;
      000396 3E 01            [ 7]  880 	ld	a, #0x01
      000398 12               [ 7]  881 	ld	(de), a
                                    882 ;pocket_platformer.c:337: return;
      000399 18 06            [12]  883 	jr	00108$
      00039B                        884 00107$:
                                    885 ;pocket_platformer.c:332: for (i = 0; i < MAX_FG_DISP; i++) {
      00039B 0C               [ 4]  886 	inc	c
      00039C 79               [ 4]  887 	ld	a, c
      00039D D6 10            [ 7]  888 	sub	a, #0x10
      00039F 38 DA            [12]  889 	jr	C, 00106$
      0003A1                        890 00108$:
                                    891 ;pocket_platformer.c:340: }
      0003A1 DD F9            [10]  892 	ld	sp, ix
      0003A3 DD E1            [14]  893 	pop	ix
      0003A5 C9               [10]  894 	ret
                                    895 ;pocket_platformer.c:350: static unsigned char is_solid_px(long fpx, long fpy) {
                                    896 ;	---------------------------------
                                    897 ; Function is_solid_px
                                    898 ; ---------------------------------
      0003A6                        899 _is_solid_px:
      0003A6 DD E5            [15]  900 	push	ix
      0003A8 DD 21 00 00      [14]  901 	ld	ix,#0
      0003AC DD 39            [15]  902 	add	ix,sp
      0003AE FD 21 E8 FF      [14]  903 	ld	iy, #-24
      0003B2 FD 39            [15]  904 	add	iy, sp
      0003B4 FD F9            [10]  905 	ld	sp, iy
                                    906 ;pocket_platformer.c:352: long px = fpx >> 8, py = fpy >> 8;
      0003B6 06 08            [ 7]  907 	ld	b, #0x08
      0003B8                        908 00267$:
      0003B8 CB 2C            [ 8]  909 	sra	h
      0003BA CB 1D            [ 8]  910 	rr	l
      0003BC CB 1A            [ 8]  911 	rr	d
      0003BE CB 1B            [ 8]  912 	rr	e
      0003C0 10 F6            [13]  913 	djnz	00267$
      0003C2 DD 73 EC         [19]  914 	ld	-20 (ix), e
      0003C5 DD 72 ED         [19]  915 	ld	-19 (ix), d
      0003C8 DD 75 EE         [19]  916 	ld	-18 (ix), l
      0003CB DD 74 EF         [19]  917 	ld	-17 (ix), h
      0003CE 21 00 00         [10]  918 	ld	hl, #0
      0003D1 39               [11]  919 	add	hl, sp
      0003D2 EB               [ 4]  920 	ex	de, hl
      0003D3 21 04 00         [10]  921 	ld	hl, #4
      0003D6 39               [11]  922 	add	hl, sp
      0003D7 01 04 00         [10]  923 	ld	bc, #4
      0003DA ED B0            [21]  924 	ldir
      0003DC DD 7E 04         [19]  925 	ld	a, 4 (ix)
      0003DF DD 77 F0         [19]  926 	ld	-16 (ix), a
      0003E2 DD 7E 05         [19]  927 	ld	a, 5 (ix)
      0003E5 DD 77 F1         [19]  928 	ld	-15 (ix), a
      0003E8 DD 7E 06         [19]  929 	ld	a, 6 (ix)
      0003EB DD 77 F2         [19]  930 	ld	-14 (ix), a
      0003EE DD 7E 07         [19]  931 	ld	a, 7 (ix)
      0003F1 DD 77 F3         [19]  932 	ld	-13 (ix), a
      0003F4 06 08            [ 7]  933 	ld	b, #0x08
      0003F6                        934 00269$:
      0003F6 DD CB F3 2E      [23]  935 	sra	-13 (ix)
      0003FA DD CB F2 1E      [23]  936 	rr	-14 (ix)
      0003FE DD CB F1 1E      [23]  937 	rr	-15 (ix)
      000402 DD CB F0 1E      [23]  938 	rr	-16 (ix)
      000406 10 EE            [13]  939 	djnz	00269$
      000408 21 0F 00         [10]  940 	ld	hl, #15
      00040B 39               [11]  941 	add	hl, sp
      00040C EB               [ 4]  942 	ex	de, hl
      00040D 21 08 00         [10]  943 	ld	hl, #8
      000410 39               [11]  944 	add	hl, sp
      000411 01 04 00         [10]  945 	ld	bc, #4
      000414 ED B0            [21]  946 	ldir
                                    947 ;pocket_platformer.c:353: if (px < 0 || py < 0) return 1;
      000416 DD 7E EB         [19]  948 	ld	a, -21 (ix)
      000419 07               [ 4]  949 	rlca
      00041A E6 01            [ 7]  950 	and	a,#0x01
      00041C DD 77 FB         [19]  951 	ld	-5 (ix), a
      00041F B7               [ 4]  952 	or	a, a
      000420 20 08            [12]  953 	jr	NZ, 00101$
      000422 DD 7E FA         [19]  954 	ld	a, -6 (ix)
      000425 07               [ 4]  955 	rlca
      000426 E6 01            [ 7]  956 	and	a,#0x01
      000428 28 05            [12]  957 	jr	Z, 00102$
      00042A                        958 00101$:
      00042A 3E 01            [ 7]  959 	ld	a, #0x01
      00042C C3rB8r06         [10]  960 	jp	00132$
      00042F                        961 00102$:
                                    962 ;pocket_platformer.c:355: (unsigned char)(py / TILE_SIZE));
      00042F 21 14 00         [10]  963 	ld	hl, #20
      000432 39               [11]  964 	add	hl, sp
      000433 EB               [ 4]  965 	ex	de, hl
      000434 21 0F 00         [10]  966 	ld	hl, #15
      000437 39               [11]  967 	add	hl, sp
      000438 01 04 00         [10]  968 	ld	bc, #4
      00043B ED B0            [21]  969 	ldir
      00043D B7               [ 4]  970 	or	a, a
      00043E 28 20            [12]  971 	jr	Z, 00134$
      000440 DD 7E F7         [19]  972 	ld	a, -9 (ix)
      000443 C6 07            [ 7]  973 	add	a, #0x07
      000445 DD 77 FC         [19]  974 	ld	-4 (ix), a
      000448 DD 7E F8         [19]  975 	ld	a, -8 (ix)
      00044B CE 00            [ 7]  976 	adc	a, #0x00
      00044D DD 77 FD         [19]  977 	ld	-3 (ix), a
      000450 DD 7E F9         [19]  978 	ld	a, -7 (ix)
      000453 CE 00            [ 7]  979 	adc	a, #0x00
      000455 DD 77 FE         [19]  980 	ld	-2 (ix), a
      000458 DD 7E FA         [19]  981 	ld	a, -6 (ix)
      00045B CE 00            [ 7]  982 	adc	a, #0x00
      00045D DD 77 FF         [19]  983 	ld	-1 (ix), a
      000460                        984 00134$:
      000460 DD 6E FC         [19]  985 	ld	l, -4 (ix)
                                    986 ;	spillPairReg hl
                                    987 ;	spillPairReg hl
      000463 DD 66 FD         [19]  988 	ld	h, -3 (ix)
                                    989 ;	spillPairReg hl
                                    990 ;	spillPairReg hl
      000466 CB 3C            [ 8]  991 	srl	h
      000468 CB 1D            [ 8]  992 	rr	l
      00046A CB 3C            [ 8]  993 	srl	h
      00046C CB 1D            [ 8]  994 	rr	l
      00046E CB 3C            [ 8]  995 	srl	h
      000470 CB 1D            [ 8]  996 	rr	l
                                    997 ;pocket_platformer.c:354: t = get_tile((unsigned char)(px / TILE_SIZE),
      000472 C1               [10]  998 	pop	bc
      000473 C5               [11]  999 	push	bc
      000474 DD 7E FB         [19] 1000 	ld	a, -5 (ix)
      000477 B7               [ 4] 1001 	or	a, a
      000478 28 0C            [12] 1002 	jr	Z, 00135$
      00047A DD 7E E8         [19] 1003 	ld	a, -24 (ix)
      00047D C6 07            [ 7] 1004 	add	a, #0x07
      00047F 4F               [ 4] 1005 	ld	c, a
      000480 DD 7E E9         [19] 1006 	ld	a, -23 (ix)
      000483 CE 00            [ 7] 1007 	adc	a, #0x00
      000485 47               [ 4] 1008 	ld	b, a
      000486                       1009 00135$:
      000486 CB 38            [ 8] 1010 	srl	b
      000488 CB 19            [ 8] 1011 	rr	c
      00048A CB 38            [ 8] 1012 	srl	b
      00048C CB 19            [ 8] 1013 	rr	c
      00048E CB 38            [ 8] 1014 	srl	b
      000490 CB 19            [ 8] 1015 	rr	c
      000492 79               [ 4] 1016 	ld	a, c
      000493 CDr1Er01         [17] 1017 	call	_get_tile
                                   1018 ;pocket_platformer.c:356: if (t == 0) return 0;
      000496 DD 77 F4         [19] 1019 	ld	-12 (ix), a
      000499 B7               [ 4] 1020 	or	a, a
      00049A 20 04            [12] 1021 	jr	NZ, 00105$
      00049C AF               [ 4] 1022 	xor	a, a
      00049D C3rB8r06         [10] 1023 	jp	00132$
      0004A0                       1024 00105$:
                                   1025 ;pocket_platformer.c:358: if (t & 0x80) return 0;
      0004A0 DD CB F4 7E      [20] 1026 	bit	7, -12 (ix)
      0004A4 28 04            [12] 1027 	jr	Z, 00107$
      0004A6 AF               [ 4] 1028 	xor	a, a
      0004A7 C3rB8r06         [10] 1029 	jp	00132$
      0004AA                       1030 00107$:
                                   1031 ;pocket_platformer.c:360: if (res_header->one_way_vram_idx && t == res_header->one_way_vram_idx) return 0;
      0004AA ED 4Br00r00      [20] 1032 	ld	bc, (_res_header)
      0004AE C5               [11] 1033 	push	bc
      0004AF FD E1            [14] 1034 	pop	iy
      0004B1 FD 5E 06         [19] 1035 	ld	e, 6 (iy)
      0004B4 7B               [ 4] 1036 	ld	a, e
      0004B5 B7               [ 4] 1037 	or	a, a
      0004B6 28 0A            [12] 1038 	jr	Z, 00151$
      0004B8 DD 7E F4         [19] 1039 	ld	a, -12 (ix)
      0004BB 93               [ 4] 1040 	sub	a, e
      0004BC 20 04            [12] 1041 	jr	NZ, 00151$
      0004BE AF               [ 4] 1042 	xor	a, a
      0004BF C3rB8r06         [10] 1043 	jp	00132$
                                   1044 ;pocket_platformer.c:364: for (di = 0; di < 18; di++) {
      0004C2                       1045 00151$:
      0004C2 1E 00            [ 7] 1046 	ld	e, #0x00
      0004C4                       1047 00130$:
                                   1048 ;pocket_platformer.c:365: if (res_header->deko_vram_idx[di] && t == res_header->deko_vram_idx[di]) return 0;
      0004C4 21 13 00         [10] 1049 	ld	hl, #0x0013
      0004C7 09               [11] 1050 	add	hl, bc
      0004C8 16 00            [ 7] 1051 	ld	d, #0x00
      0004CA 19               [11] 1052 	add	hl, de
      0004CB 56               [ 7] 1053 	ld	d, (hl)
      0004CC 7A               [ 4] 1054 	ld	a, d
      0004CD B7               [ 4] 1055 	or	a, a
      0004CE 28 0A            [12] 1056 	jr	Z, 00131$
      0004D0 DD 7E F4         [19] 1057 	ld	a, -12 (ix)
      0004D3 92               [ 4] 1058 	sub	a, d
      0004D4 20 04            [12] 1059 	jr	NZ, 00131$
      0004D6 AF               [ 4] 1060 	xor	a, a
      0004D7 C3rB8r06         [10] 1061 	jp	00132$
      0004DA                       1062 00131$:
                                   1063 ;pocket_platformer.c:364: for (di = 0; di < 18; di++) {
      0004DA 1C               [ 4] 1064 	inc	e
      0004DB 7B               [ 4] 1065 	ld	a, e
      0004DC D6 12            [ 7] 1066 	sub	a, #0x12
      0004DE 38 E4            [12] 1067 	jr	C, 00130$
                                   1068 ;pocket_platformer.c:370: unsigned char dtx = (unsigned char)((fpx>>8)/TILE_SIZE);
      0004E0 DD 7E EF         [19] 1069 	ld	a, -17 (ix)
      0004E3 07               [ 4] 1070 	rlca
      0004E4 E6 01            [ 7] 1071 	and	a,#0x01
      0004E6 DD 77 F5         [19] 1072 	ld	-11 (ix), a
      0004E9 DD 7E EC         [19] 1073 	ld	a, -20 (ix)
      0004EC C6 07            [ 7] 1074 	add	a, #0x07
      0004EE DD 77 F6         [19] 1075 	ld	-10 (ix), a
      0004F1 DD 7E ED         [19] 1076 	ld	a, -19 (ix)
      0004F4 CE 00            [ 7] 1077 	adc	a, #0x00
      0004F6 DD 77 F7         [19] 1078 	ld	-9 (ix), a
      0004F9 DD 7E EE         [19] 1079 	ld	a, -18 (ix)
      0004FC CE 00            [ 7] 1080 	adc	a, #0x00
      0004FE DD 77 F8         [19] 1081 	ld	-8 (ix), a
      000501 DD 7E EF         [19] 1082 	ld	a, -17 (ix)
      000504 CE 00            [ 7] 1083 	adc	a, #0x00
      000506 DD 77 F9         [19] 1084 	ld	-7 (ix), a
                                   1085 ;pocket_platformer.c:371: unsigned char dty = (unsigned char)((fpy>>8)/TILE_SIZE);
      000509 DD 7E F3         [19] 1086 	ld	a, -13 (ix)
      00050C 07               [ 4] 1087 	rlca
      00050D E6 01            [ 7] 1088 	and	a,#0x01
      00050F DD 77 FA         [19] 1089 	ld	-6 (ix), a
      000512 DD 7E F0         [19] 1090 	ld	a, -16 (ix)
      000515 C6 07            [ 7] 1091 	add	a, #0x07
      000517 DD 77 FB         [19] 1092 	ld	-5 (ix), a
      00051A DD 7E F1         [19] 1093 	ld	a, -15 (ix)
      00051D CE 00            [ 7] 1094 	adc	a, #0x00
      00051F DD 77 FC         [19] 1095 	ld	-4 (ix), a
      000522 DD 7E F2         [19] 1096 	ld	a, -14 (ix)
      000525 CE 00            [ 7] 1097 	adc	a, #0x00
      000527 DD 77 FD         [19] 1098 	ld	-3 (ix), a
      00052A DD 7E F3         [19] 1099 	ld	a, -13 (ix)
      00052D CE 00            [ 7] 1100 	adc	a, #0x00
      00052F DD 77 FE         [19] 1101 	ld	-2 (ix), a
                                   1102 ;pocket_platformer.c:369: if (vp_block_count) {
      000532 3Ar42r01         [13] 1103 	ld	a, (_vp_block_count+0)
      000535 B7               [ 4] 1104 	or	a, a
      000536 28 5F            [12] 1105 	jr	Z, 00118$
                                   1106 ;pocket_platformer.c:370: unsigned char dtx = (unsigned char)((fpx>>8)/TILE_SIZE);
      000538 21 00 00         [10] 1107 	ld	hl, #0
      00053B 39               [11] 1108 	add	hl, sp
      00053C EB               [ 4] 1109 	ex	de, hl
      00053D 21 04 00         [10] 1110 	ld	hl, #4
      000540 39               [11] 1111 	add	hl, sp
      000541 01 04 00         [10] 1112 	ld	bc, #4
      000544 ED B0            [21] 1113 	ldir
      000546 DD 7E F5         [19] 1114 	ld	a, -11 (ix)
      000549 B7               [ 4] 1115 	or	a, a
      00054A 28 0E            [12] 1116 	jr	Z, 00136$
      00054C 21 00 00         [10] 1117 	ld	hl, #0
      00054F 39               [11] 1118 	add	hl, sp
      000550 EB               [ 4] 1119 	ex	de, hl
      000551 21 0E 00         [10] 1120 	ld	hl, #14
      000554 39               [11] 1121 	add	hl, sp
      000555 01 04 00         [10] 1122 	ld	bc, #4
      000558 ED B0            [21] 1123 	ldir
      00055A                       1124 00136$:
      00055A C1               [10] 1125 	pop	bc
      00055B C5               [11] 1126 	push	bc
      00055C CB 38            [ 8] 1127 	srl	b
      00055E CB 19            [ 8] 1128 	rr	c
      000560 CB 38            [ 8] 1129 	srl	b
      000562 CB 19            [ 8] 1130 	rr	c
      000564 CB 38            [ 8] 1131 	srl	b
      000566 CB 19            [ 8] 1132 	rr	c
      000568 DD 71 FF         [19] 1133 	ld	-1 (ix), c
                                   1134 ;pocket_platformer.c:371: unsigned char dty = (unsigned char)((fpy>>8)/TILE_SIZE);
      00056B DD 4E F0         [19] 1135 	ld	c, -16 (ix)
      00056E DD 46 F1         [19] 1136 	ld	b, -15 (ix)
      000571 DD 7E FA         [19] 1137 	ld	a, -6 (ix)
      000574 B7               [ 4] 1138 	or	a, a
      000575 28 06            [12] 1139 	jr	Z, 00137$
      000577 DD 4E FB         [19] 1140 	ld	c, -5 (ix)
      00057A DD 46 FC         [19] 1141 	ld	b, -4 (ix)
      00057D                       1142 00137$:
      00057D CB 38            [ 8] 1143 	srl	b
      00057F CB 19            [ 8] 1144 	rr	c
      000581 CB 38            [ 8] 1145 	srl	b
      000583 CB 19            [ 8] 1146 	rr	c
      000585 CB 38            [ 8] 1147 	srl	b
      000587 CB 19            [ 8] 1148 	rr	c
                                   1149 ;pocket_platformer.c:372: if (vp_is_passable(dtx, dty)) return 0;
      000589 69               [ 4] 1150 	ld	l, c
                                   1151 ;	spillPairReg hl
                                   1152 ;	spillPairReg hl
      00058A DD 7E FF         [19] 1153 	ld	a, -1 (ix)
      00058D CDrEEr26         [17] 1154 	call	_vp_is_passable
      000590 B7               [ 4] 1155 	or	a, a
      000591 28 04            [12] 1156 	jr	Z, 00118$
      000593 AF               [ 4] 1157 	xor	a, a
      000594 C3rB8r06         [10] 1158 	jp	00132$
      000597                       1159 00118$:
                                   1160 ;pocket_platformer.c:375: if (rb_block_count) {
      000597 3ArE4r01         [13] 1161 	ld	a, (_rb_block_count+0)
      00059A B7               [ 4] 1162 	or	a, a
      00059B 28 4D            [12] 1163 	jr	Z, 00122$
                                   1164 ;pocket_platformer.c:376: unsigned char dtx = (unsigned char)((fpx>>8)/TILE_SIZE);
      00059D DD 4E EC         [19] 1165 	ld	c, -20 (ix)
      0005A0 DD 46 ED         [19] 1166 	ld	b, -19 (ix)
      0005A3 DD 7E F5         [19] 1167 	ld	a, -11 (ix)
      0005A6 B7               [ 4] 1168 	or	a, a
      0005A7 28 06            [12] 1169 	jr	Z, 00138$
      0005A9 DD 4E F6         [19] 1170 	ld	c, -10 (ix)
      0005AC DD 46 F7         [19] 1171 	ld	b, -9 (ix)
      0005AF                       1172 00138$:
      0005AF CB 38            [ 8] 1173 	srl	b
      0005B1 CB 19            [ 8] 1174 	rr	c
      0005B3 CB 38            [ 8] 1175 	srl	b
      0005B5 CB 19            [ 8] 1176 	rr	c
      0005B7 CB 38            [ 8] 1177 	srl	b
      0005B9 CB 19            [ 8] 1178 	rr	c
      0005BB DD 71 FF         [19] 1179 	ld	-1 (ix), c
                                   1180 ;pocket_platformer.c:377: unsigned char dty = (unsigned char)((fpy>>8)/TILE_SIZE);
      0005BE DD 4E F0         [19] 1181 	ld	c, -16 (ix)
      0005C1 DD 46 F1         [19] 1182 	ld	b, -15 (ix)
      0005C4 DD 7E FA         [19] 1183 	ld	a, -6 (ix)
      0005C7 B7               [ 4] 1184 	or	a, a
      0005C8 28 06            [12] 1185 	jr	Z, 00139$
      0005CA DD 4E FB         [19] 1186 	ld	c, -5 (ix)
      0005CD DD 46 FC         [19] 1187 	ld	b, -4 (ix)
      0005D0                       1188 00139$:
      0005D0 CB 38            [ 8] 1189 	srl	b
      0005D2 CB 19            [ 8] 1190 	rr	c
      0005D4 CB 38            [ 8] 1191 	srl	b
      0005D6 CB 19            [ 8] 1192 	rr	c
      0005D8 CB 38            [ 8] 1193 	srl	b
      0005DA CB 19            [ 8] 1194 	rr	c
                                   1195 ;pocket_platformer.c:378: if (rb_is_passable(dtx, dty)) return 0;
      0005DC 69               [ 4] 1196 	ld	l, c
                                   1197 ;	spillPairReg hl
                                   1198 ;	spillPairReg hl
      0005DD DD 7E FF         [19] 1199 	ld	a, -1 (ix)
      0005E0 CDr8Br29         [17] 1200 	call	_rb_is_passable
      0005E3 B7               [ 4] 1201 	or	a, a
      0005E4 28 04            [12] 1202 	jr	Z, 00122$
      0005E6 AF               [ 4] 1203 	xor	a, a
      0005E7 C3rB8r06         [10] 1204 	jp	00132$
      0005EA                       1205 00122$:
                                   1206 ;pocket_platformer.c:382: unsigned char dtx = (unsigned char)((fpx>>8)/TILE_SIZE);
      0005EA DD 4E EC         [19] 1207 	ld	c, -20 (ix)
      0005ED DD 46 ED         [19] 1208 	ld	b, -19 (ix)
      0005F0 DD 5E EE         [19] 1209 	ld	e, -18 (ix)
      0005F3 DD 56 EF         [19] 1210 	ld	d, -17 (ix)
      0005F6 DD 7E F5         [19] 1211 	ld	a, -11 (ix)
      0005F9 B7               [ 4] 1212 	or	a, a
      0005FA 28 0C            [12] 1213 	jr	Z, 00140$
      0005FC DD 4E F6         [19] 1214 	ld	c, -10 (ix)
      0005FF DD 46 F7         [19] 1215 	ld	b, -9 (ix)
      000602 DD 5E F8         [19] 1216 	ld	e, -8 (ix)
      000605 DD 56 F9         [19] 1217 	ld	d, -7 (ix)
      000608                       1218 00140$:
      000608 CB 38            [ 8] 1219 	srl	b
      00060A CB 19            [ 8] 1220 	rr	c
      00060C CB 38            [ 8] 1221 	srl	b
      00060E CB 19            [ 8] 1222 	rr	c
      000610 CB 38            [ 8] 1223 	srl	b
      000612 CB 19            [ 8] 1224 	rr	c
      000614 DD 71 FF         [19] 1225 	ld	-1 (ix), c
                                   1226 ;pocket_platformer.c:383: unsigned char dty = (unsigned char)((fpy>>8)/TILE_SIZE);
      000617 21 0E 00         [10] 1227 	ld	hl, #14
      00061A 39               [11] 1228 	add	hl, sp
      00061B EB               [ 4] 1229 	ex	de, hl
      00061C 21 08 00         [10] 1230 	ld	hl, #8
      00061F 39               [11] 1231 	add	hl, sp
      000620 01 04 00         [10] 1232 	ld	bc, #4
      000623 ED B0            [21] 1233 	ldir
      000625 DD 7E FA         [19] 1234 	ld	a, -6 (ix)
      000628 B7               [ 4] 1235 	or	a, a
      000629 28 0E            [12] 1236 	jr	Z, 00141$
      00062B 21 0E 00         [10] 1237 	ld	hl, #14
      00062E 39               [11] 1238 	add	hl, sp
      00062F EB               [ 4] 1239 	ex	de, hl
      000630 21 13 00         [10] 1240 	ld	hl, #19
      000633 39               [11] 1241 	add	hl, sp
      000634 01 04 00         [10] 1242 	ld	bc, #4
      000637 ED B0            [21] 1243 	ldir
      000639                       1244 00141$:
      000639 DD 7E F6         [19] 1245 	ld	a, -10 (ix)
      00063C DD 77 FD         [19] 1246 	ld	-3 (ix), a
      00063F DD 7E F7         [19] 1247 	ld	a, -9 (ix)
      000642 DD 77 FE         [19] 1248 	ld	-2 (ix), a
      000645 DD CB FE 3E      [23] 1249 	srl	-2 (ix)
      000649 DD CB FD 1E      [23] 1250 	rr	-3 (ix)
      00064D DD CB FE 3E      [23] 1251 	srl	-2 (ix)
      000651 DD CB FD 1E      [23] 1252 	rr	-3 (ix)
      000655 DD CB FE 3E      [23] 1253 	srl	-2 (ix)
      000659 DD CB FD 1E      [23] 1254 	rr	-3 (ix)
      00065D DD 7E FD         [19] 1255 	ld	a, -3 (ix)
      000660 DD 77 FC         [19] 1256 	ld	-4 (ix), a
                                   1257 ;pocket_platformer.c:360: if (res_header->one_way_vram_idx && t == res_header->one_way_vram_idx) return 0;
      000663 2Ar00r00         [16] 1258 	ld	hl, (_res_header)
                                   1259 ;pocket_platformer.c:384: if ((res_header->disp_vram_idx && t == res_header->disp_vram_idx &&
      000666 DD 75 FD         [19] 1260 	ld	-3 (ix), l
      000669 DD 74 FE         [19] 1261 	ld	-2 (ix), h
      00066C 11 07 00         [10] 1262 	ld	de, #0x0007
      00066F 19               [11] 1263 	add	hl, de
      000670 7E               [ 7] 1264 	ld	a, (hl)
      000671 DD 77 FE         [19] 1265 	ld	-2 (ix), a
      000674 B7               [ 4] 1266 	or	a, a
      000675 28 14            [12] 1267 	jr	Z, 00129$
      000677 DD 7E F4         [19] 1268 	ld	a, -12 (ix)
      00067A DD 96 FE         [19] 1269 	sub	a, -2 (ix)
      00067D 20 0C            [12] 1270 	jr	NZ, 00129$
                                   1271 ;pocket_platformer.c:385: disp_is_gone(dtx, dty)) ||
      00067F DD 6E FC         [19] 1272 	ld	l, -4 (ix)
                                   1273 ;	spillPairReg hl
                                   1274 ;	spillPairReg hl
      000682 DD 7E FF         [19] 1275 	ld	a, -1 (ix)
      000685 CDr73r02         [17] 1276 	call	_disp_is_gone
      000688 B7               [ 4] 1277 	or	a, a
      000689 20 28            [12] 1278 	jr	NZ, 00123$
      00068B                       1279 00129$:
                                   1280 ;pocket_platformer.c:360: if (res_header->one_way_vram_idx && t == res_header->one_way_vram_idx) return 0;
      00068B 2Ar00r00         [16] 1281 	ld	hl, (_res_header)
                                   1282 ;pocket_platformer.c:386: (res_header->conn_vram_idx && t == res_header->conn_vram_idx &&
      00068E DD 75 FD         [19] 1283 	ld	-3 (ix), l
      000691 DD 74 FE         [19] 1284 	ld	-2 (ix), h
      000694 11 08 00         [10] 1285 	ld	de, #0x0008
      000697 19               [11] 1286 	add	hl, de
      000698 7E               [ 7] 1287 	ld	a, (hl)
      000699 DD 77 FE         [19] 1288 	ld	-2 (ix), a
      00069C B7               [ 4] 1289 	or	a, a
      00069D 28 17            [12] 1290 	jr	Z, 00124$
      00069F DD 7E F4         [19] 1291 	ld	a, -12 (ix)
      0006A2 DD 96 FE         [19] 1292 	sub	a, -2 (ix)
      0006A5 20 0F            [12] 1293 	jr	NZ, 00124$
                                   1294 ;pocket_platformer.c:387: disp_is_gone(dtx, dty))) return 0;
      0006A7 DD 6E FC         [19] 1295 	ld	l, -4 (ix)
                                   1296 ;	spillPairReg hl
                                   1297 ;	spillPairReg hl
      0006AA DD 7E FF         [19] 1298 	ld	a, -1 (ix)
      0006AD CDr73r02         [17] 1299 	call	_disp_is_gone
      0006B0 B7               [ 4] 1300 	or	a, a
      0006B1 28 03            [12] 1301 	jr	Z, 00124$
      0006B3                       1302 00123$:
      0006B3 AF               [ 4] 1303 	xor	a, a
      0006B4 18 02            [12] 1304 	jr	00132$
      0006B6                       1305 00124$:
                                   1306 ;pocket_platformer.c:389: return 1;
      0006B6 3E 01            [ 7] 1307 	ld	a, #0x01
      0006B8                       1308 00132$:
                                   1309 ;pocket_platformer.c:390: }
      0006B8 DD F9            [10] 1310 	ld	sp, ix
      0006BA DD E1            [14] 1311 	pop	ix
      0006BC E1               [10] 1312 	pop	hl
      0006BD C1               [10] 1313 	pop	bc
      0006BE C1               [10] 1314 	pop	bc
      0006BF E9               [ 4] 1315 	jp	(hl)
                                   1316 ;pocket_platformer.c:394: static unsigned char is_solid_falling_px(long fpx, long fpy) {
                                   1317 ;	---------------------------------
                                   1318 ; Function is_solid_falling_px
                                   1319 ; ---------------------------------
      0006C0                       1320 _is_solid_falling_px:
      0006C0 DD E5            [15] 1321 	push	ix
      0006C2 DD 21 00 00      [14] 1322 	ld	ix,#0
      0006C6 DD 39            [15] 1323 	add	ix,sp
      0006C8 FD 21 E8 FF      [14] 1324 	ld	iy, #-24
      0006CC FD 39            [15] 1325 	add	iy, sp
      0006CE FD F9            [10] 1326 	ld	sp, iy
                                   1327 ;pocket_platformer.c:396: long px = fpx >> 8, py = fpy >> 8;
      0006D0 06 08            [ 7] 1328 	ld	b, #0x08
      0006D2                       1329 00254$:
      0006D2 CB 2C            [ 8] 1330 	sra	h
      0006D4 CB 1D            [ 8] 1331 	rr	l
      0006D6 CB 1A            [ 8] 1332 	rr	d
      0006D8 CB 1B            [ 8] 1333 	rr	e
      0006DA 10 F6            [13] 1334 	djnz	00254$
      0006DC DD 73 EC         [19] 1335 	ld	-20 (ix), e
      0006DF DD 72 ED         [19] 1336 	ld	-19 (ix), d
      0006E2 DD 75 EE         [19] 1337 	ld	-18 (ix), l
      0006E5 DD 74 EF         [19] 1338 	ld	-17 (ix), h
      0006E8 21 00 00         [10] 1339 	ld	hl, #0
      0006EB 39               [11] 1340 	add	hl, sp
      0006EC EB               [ 4] 1341 	ex	de, hl
      0006ED 21 04 00         [10] 1342 	ld	hl, #4
      0006F0 39               [11] 1343 	add	hl, sp
      0006F1 01 04 00         [10] 1344 	ld	bc, #4
      0006F4 ED B0            [21] 1345 	ldir
      0006F6 DD 7E 04         [19] 1346 	ld	a, 4 (ix)
      0006F9 DD 77 F0         [19] 1347 	ld	-16 (ix), a
      0006FC DD 7E 05         [19] 1348 	ld	a, 5 (ix)
      0006FF DD 77 F1         [19] 1349 	ld	-15 (ix), a
      000702 DD 7E 06         [19] 1350 	ld	a, 6 (ix)
      000705 DD 77 F2         [19] 1351 	ld	-14 (ix), a
      000708 DD 7E 07         [19] 1352 	ld	a, 7 (ix)
      00070B DD 77 F3         [19] 1353 	ld	-13 (ix), a
      00070E 06 08            [ 7] 1354 	ld	b, #0x08
      000710                       1355 00256$:
      000710 DD CB F3 2E      [23] 1356 	sra	-13 (ix)
      000714 DD CB F2 1E      [23] 1357 	rr	-14 (ix)
      000718 DD CB F1 1E      [23] 1358 	rr	-15 (ix)
      00071C DD CB F0 1E      [23] 1359 	rr	-16 (ix)
      000720 10 EE            [13] 1360 	djnz	00256$
      000722 21 0F 00         [10] 1361 	ld	hl, #15
      000725 39               [11] 1362 	add	hl, sp
      000726 EB               [ 4] 1363 	ex	de, hl
      000727 21 08 00         [10] 1364 	ld	hl, #8
      00072A 39               [11] 1365 	add	hl, sp
      00072B 01 04 00         [10] 1366 	ld	bc, #4
      00072E ED B0            [21] 1367 	ldir
                                   1368 ;pocket_platformer.c:397: if (px < 0 || py < 0) return 1;
      000730 DD 7E EB         [19] 1369 	ld	a, -21 (ix)
      000733 07               [ 4] 1370 	rlca
      000734 E6 01            [ 7] 1371 	and	a,#0x01
      000736 DD 77 FB         [19] 1372 	ld	-5 (ix), a
      000739 B7               [ 4] 1373 	or	a, a
      00073A 20 08            [12] 1374 	jr	NZ, 00101$
      00073C DD 7E FA         [19] 1375 	ld	a, -6 (ix)
      00073F 07               [ 4] 1376 	rlca
      000740 E6 01            [ 7] 1377 	and	a,#0x01
      000742 28 05            [12] 1378 	jr	Z, 00102$
      000744                       1379 00101$:
      000744 3E 01            [ 7] 1380 	ld	a, #0x01
      000746 C3rBEr09         [10] 1381 	jp	00129$
      000749                       1382 00102$:
                                   1383 ;pocket_platformer.c:399: (unsigned char)(py / TILE_SIZE));
      000749 21 14 00         [10] 1384 	ld	hl, #20
      00074C 39               [11] 1385 	add	hl, sp
      00074D EB               [ 4] 1386 	ex	de, hl
      00074E 21 0F 00         [10] 1387 	ld	hl, #15
      000751 39               [11] 1388 	add	hl, sp
      000752 01 04 00         [10] 1389 	ld	bc, #4
      000755 ED B0            [21] 1390 	ldir
      000757 B7               [ 4] 1391 	or	a, a
      000758 28 20            [12] 1392 	jr	Z, 00131$
      00075A DD 7E F7         [19] 1393 	ld	a, -9 (ix)
      00075D C6 07            [ 7] 1394 	add	a, #0x07
      00075F DD 77 FC         [19] 1395 	ld	-4 (ix), a
      000762 DD 7E F8         [19] 1396 	ld	a, -8 (ix)
      000765 CE 00            [ 7] 1397 	adc	a, #0x00
      000767 DD 77 FD         [19] 1398 	ld	-3 (ix), a
      00076A DD 7E F9         [19] 1399 	ld	a, -7 (ix)
      00076D CE 00            [ 7] 1400 	adc	a, #0x00
      00076F DD 77 FE         [19] 1401 	ld	-2 (ix), a
      000772 DD 7E FA         [19] 1402 	ld	a, -6 (ix)
      000775 CE 00            [ 7] 1403 	adc	a, #0x00
      000777 DD 77 FF         [19] 1404 	ld	-1 (ix), a
      00077A                       1405 00131$:
      00077A DD 6E FC         [19] 1406 	ld	l, -4 (ix)
                                   1407 ;	spillPairReg hl
                                   1408 ;	spillPairReg hl
      00077D DD 66 FD         [19] 1409 	ld	h, -3 (ix)
                                   1410 ;	spillPairReg hl
                                   1411 ;	spillPairReg hl
      000780 CB 3C            [ 8] 1412 	srl	h
      000782 CB 1D            [ 8] 1413 	rr	l
      000784 CB 3C            [ 8] 1414 	srl	h
      000786 CB 1D            [ 8] 1415 	rr	l
      000788 CB 3C            [ 8] 1416 	srl	h
      00078A CB 1D            [ 8] 1417 	rr	l
                                   1418 ;pocket_platformer.c:398: t = get_tile((unsigned char)(px / TILE_SIZE),
      00078C C1               [10] 1419 	pop	bc
      00078D C5               [11] 1420 	push	bc
      00078E DD 7E FB         [19] 1421 	ld	a, -5 (ix)
      000791 B7               [ 4] 1422 	or	a, a
      000792 28 0C            [12] 1423 	jr	Z, 00132$
      000794 DD 7E E8         [19] 1424 	ld	a, -24 (ix)
      000797 C6 07            [ 7] 1425 	add	a, #0x07
      000799 4F               [ 4] 1426 	ld	c, a
      00079A DD 7E E9         [19] 1427 	ld	a, -23 (ix)
      00079D CE 00            [ 7] 1428 	adc	a, #0x00
      00079F 47               [ 4] 1429 	ld	b, a
      0007A0                       1430 00132$:
      0007A0 CB 38            [ 8] 1431 	srl	b
      0007A2 CB 19            [ 8] 1432 	rr	c
      0007A4 CB 38            [ 8] 1433 	srl	b
      0007A6 CB 19            [ 8] 1434 	rr	c
      0007A8 CB 38            [ 8] 1435 	srl	b
      0007AA CB 19            [ 8] 1436 	rr	c
      0007AC 79               [ 4] 1437 	ld	a, c
      0007AD CDr1Er01         [17] 1438 	call	_get_tile
                                   1439 ;pocket_platformer.c:400: if (t == 0) return 0;
      0007B0 DD 77 F4         [19] 1440 	ld	-12 (ix), a
      0007B3 B7               [ 4] 1441 	or	a, a
      0007B4 20 04            [12] 1442 	jr	NZ, 00105$
      0007B6 AF               [ 4] 1443 	xor	a, a
      0007B7 C3rBEr09         [10] 1444 	jp	00129$
      0007BA                       1445 00105$:
                                   1446 ;pocket_platformer.c:402: if (t & 0x80) return 0;
      0007BA DD CB F4 7E      [20] 1447 	bit	7, -12 (ix)
      0007BE 28 04            [12] 1448 	jr	Z, 00146$
      0007C0 AF               [ 4] 1449 	xor	a, a
      0007C1 C3rBEr09         [10] 1450 	jp	00129$
                                   1451 ;pocket_platformer.c:406: for (di = 0; di < 18; di++) {
      0007C4                       1452 00146$:
      0007C4 0E 00            [ 7] 1453 	ld	c, #0x00
      0007C6                       1454 00127$:
                                   1455 ;pocket_platformer.c:407: if (res_header->deko_vram_idx[di] && t == res_header->deko_vram_idx[di]) return 0;
      0007C6 2Ar00r00         [16] 1456 	ld	hl, (_res_header)
      0007C9 11 13 00         [10] 1457 	ld	de, #0x0013
      0007CC 19               [11] 1458 	add	hl, de
      0007CD 59               [ 4] 1459 	ld	e, c
      0007CE 16 00            [ 7] 1460 	ld	d, #0x00
      0007D0 19               [11] 1461 	add	hl, de
      0007D1 46               [ 7] 1462 	ld	b, (hl)
      0007D2 78               [ 4] 1463 	ld	a, b
      0007D3 B7               [ 4] 1464 	or	a, a
      0007D4 28 0A            [12] 1465 	jr	Z, 00128$
      0007D6 DD 7E F4         [19] 1466 	ld	a, -12 (ix)
      0007D9 90               [ 4] 1467 	sub	a, b
      0007DA 20 04            [12] 1468 	jr	NZ, 00128$
      0007DC AF               [ 4] 1469 	xor	a, a
      0007DD C3rBEr09         [10] 1470 	jp	00129$
      0007E0                       1471 00128$:
                                   1472 ;pocket_platformer.c:406: for (di = 0; di < 18; di++) {
      0007E0 0C               [ 4] 1473 	inc	c
      0007E1 79               [ 4] 1474 	ld	a, c
      0007E2 D6 12            [ 7] 1475 	sub	a, #0x12
      0007E4 38 E0            [12] 1476 	jr	C, 00127$
                                   1477 ;pocket_platformer.c:412: unsigned char dtx = (unsigned char)((fpx>>8)/TILE_SIZE);
      0007E6 DD 7E EF         [19] 1478 	ld	a, -17 (ix)
      0007E9 07               [ 4] 1479 	rlca
      0007EA E6 01            [ 7] 1480 	and	a,#0x01
      0007EC DD 77 F5         [19] 1481 	ld	-11 (ix), a
      0007EF DD 7E EC         [19] 1482 	ld	a, -20 (ix)
      0007F2 C6 07            [ 7] 1483 	add	a, #0x07
      0007F4 DD 77 F6         [19] 1484 	ld	-10 (ix), a
      0007F7 DD 7E ED         [19] 1485 	ld	a, -19 (ix)
      0007FA CE 00            [ 7] 1486 	adc	a, #0x00
      0007FC DD 77 F7         [19] 1487 	ld	-9 (ix), a
      0007FF DD 7E EE         [19] 1488 	ld	a, -18 (ix)
      000802 CE 00            [ 7] 1489 	adc	a, #0x00
      000804 DD 77 F8         [19] 1490 	ld	-8 (ix), a
      000807 DD 7E EF         [19] 1491 	ld	a, -17 (ix)
      00080A CE 00            [ 7] 1492 	adc	a, #0x00
      00080C DD 77 F9         [19] 1493 	ld	-7 (ix), a
                                   1494 ;pocket_platformer.c:413: unsigned char dty = (unsigned char)((fpy>>8)/TILE_SIZE);
      00080F DD 7E F3         [19] 1495 	ld	a, -13 (ix)
      000812 07               [ 4] 1496 	rlca
      000813 E6 01            [ 7] 1497 	and	a,#0x01
      000815 DD 77 FA         [19] 1498 	ld	-6 (ix), a
      000818 DD 7E F0         [19] 1499 	ld	a, -16 (ix)
      00081B C6 07            [ 7] 1500 	add	a, #0x07
      00081D DD 77 FB         [19] 1501 	ld	-5 (ix), a
      000820 DD 7E F1         [19] 1502 	ld	a, -15 (ix)
      000823 CE 00            [ 7] 1503 	adc	a, #0x00
      000825 DD 77 FC         [19] 1504 	ld	-4 (ix), a
      000828 DD 7E F2         [19] 1505 	ld	a, -14 (ix)
      00082B CE 00            [ 7] 1506 	adc	a, #0x00
      00082D DD 77 FD         [19] 1507 	ld	-3 (ix), a
      000830 DD 7E F3         [19] 1508 	ld	a, -13 (ix)
      000833 CE 00            [ 7] 1509 	adc	a, #0x00
      000835 DD 77 FE         [19] 1510 	ld	-2 (ix), a
                                   1511 ;pocket_platformer.c:411: if (vp_block_count) {
      000838 3Ar42r01         [13] 1512 	ld	a, (_vp_block_count+0)
      00083B B7               [ 4] 1513 	or	a, a
      00083C 28 5F            [12] 1514 	jr	Z, 00115$
                                   1515 ;pocket_platformer.c:412: unsigned char dtx = (unsigned char)((fpx>>8)/TILE_SIZE);
      00083E 21 00 00         [10] 1516 	ld	hl, #0
      000841 39               [11] 1517 	add	hl, sp
      000842 EB               [ 4] 1518 	ex	de, hl
      000843 21 04 00         [10] 1519 	ld	hl, #4
      000846 39               [11] 1520 	add	hl, sp
      000847 01 04 00         [10] 1521 	ld	bc, #4
      00084A ED B0            [21] 1522 	ldir
      00084C DD 7E F5         [19] 1523 	ld	a, -11 (ix)
      00084F B7               [ 4] 1524 	or	a, a
      000850 28 0E            [12] 1525 	jr	Z, 00133$
      000852 21 00 00         [10] 1526 	ld	hl, #0
      000855 39               [11] 1527 	add	hl, sp
      000856 EB               [ 4] 1528 	ex	de, hl
      000857 21 0E 00         [10] 1529 	ld	hl, #14
      00085A 39               [11] 1530 	add	hl, sp
      00085B 01 04 00         [10] 1531 	ld	bc, #4
      00085E ED B0            [21] 1532 	ldir
      000860                       1533 00133$:
      000860 C1               [10] 1534 	pop	bc
      000861 C5               [11] 1535 	push	bc
      000862 CB 38            [ 8] 1536 	srl	b
      000864 CB 19            [ 8] 1537 	rr	c
      000866 CB 38            [ 8] 1538 	srl	b
      000868 CB 19            [ 8] 1539 	rr	c
      00086A CB 38            [ 8] 1540 	srl	b
      00086C CB 19            [ 8] 1541 	rr	c
      00086E DD 71 FF         [19] 1542 	ld	-1 (ix), c
                                   1543 ;pocket_platformer.c:413: unsigned char dty = (unsigned char)((fpy>>8)/TILE_SIZE);
      000871 DD 4E F0         [19] 1544 	ld	c, -16 (ix)
      000874 DD 46 F1         [19] 1545 	ld	b, -15 (ix)
      000877 DD 7E FA         [19] 1546 	ld	a, -6 (ix)
      00087A B7               [ 4] 1547 	or	a, a
      00087B 28 06            [12] 1548 	jr	Z, 00134$
      00087D DD 4E FB         [19] 1549 	ld	c, -5 (ix)
      000880 DD 46 FC         [19] 1550 	ld	b, -4 (ix)
      000883                       1551 00134$:
      000883 CB 38            [ 8] 1552 	srl	b
      000885 CB 19            [ 8] 1553 	rr	c
      000887 CB 38            [ 8] 1554 	srl	b
      000889 CB 19            [ 8] 1555 	rr	c
      00088B CB 38            [ 8] 1556 	srl	b
      00088D CB 19            [ 8] 1557 	rr	c
                                   1558 ;pocket_platformer.c:414: if (vp_is_passable(dtx, dty)) return 0;
      00088F 69               [ 4] 1559 	ld	l, c
                                   1560 ;	spillPairReg hl
                                   1561 ;	spillPairReg hl
      000890 DD 7E FF         [19] 1562 	ld	a, -1 (ix)
      000893 CDrEEr26         [17] 1563 	call	_vp_is_passable
      000896 B7               [ 4] 1564 	or	a, a
      000897 28 04            [12] 1565 	jr	Z, 00115$
      000899 AF               [ 4] 1566 	xor	a, a
      00089A C3rBEr09         [10] 1567 	jp	00129$
      00089D                       1568 00115$:
                                   1569 ;pocket_platformer.c:417: if (rb_block_count) {
      00089D 3ArE4r01         [13] 1570 	ld	a, (_rb_block_count+0)
      0008A0 B7               [ 4] 1571 	or	a, a
      0008A1 28 4D            [12] 1572 	jr	Z, 00119$
                                   1573 ;pocket_platformer.c:418: unsigned char dtx = (unsigned char)((fpx>>8)/TILE_SIZE);
      0008A3 DD 4E EC         [19] 1574 	ld	c, -20 (ix)
      0008A6 DD 46 ED         [19] 1575 	ld	b, -19 (ix)
      0008A9 DD 7E F5         [19] 1576 	ld	a, -11 (ix)
      0008AC B7               [ 4] 1577 	or	a, a
      0008AD 28 06            [12] 1578 	jr	Z, 00135$
      0008AF DD 4E F6         [19] 1579 	ld	c, -10 (ix)
      0008B2 DD 46 F7         [19] 1580 	ld	b, -9 (ix)
      0008B5                       1581 00135$:
      0008B5 CB 38            [ 8] 1582 	srl	b
      0008B7 CB 19            [ 8] 1583 	rr	c
      0008B9 CB 38            [ 8] 1584 	srl	b
      0008BB CB 19            [ 8] 1585 	rr	c
      0008BD CB 38            [ 8] 1586 	srl	b
      0008BF CB 19            [ 8] 1587 	rr	c
      0008C1 DD 71 FF         [19] 1588 	ld	-1 (ix), c
                                   1589 ;pocket_platformer.c:419: unsigned char dty = (unsigned char)((fpy>>8)/TILE_SIZE);
      0008C4 DD 4E F0         [19] 1590 	ld	c, -16 (ix)
      0008C7 DD 46 F1         [19] 1591 	ld	b, -15 (ix)
      0008CA DD 7E FA         [19] 1592 	ld	a, -6 (ix)
      0008CD B7               [ 4] 1593 	or	a, a
      0008CE 28 06            [12] 1594 	jr	Z, 00136$
      0008D0 DD 4E FB         [19] 1595 	ld	c, -5 (ix)
      0008D3 DD 46 FC         [19] 1596 	ld	b, -4 (ix)
      0008D6                       1597 00136$:
      0008D6 CB 38            [ 8] 1598 	srl	b
      0008D8 CB 19            [ 8] 1599 	rr	c
      0008DA CB 38            [ 8] 1600 	srl	b
      0008DC CB 19            [ 8] 1601 	rr	c
      0008DE CB 38            [ 8] 1602 	srl	b
      0008E0 CB 19            [ 8] 1603 	rr	c
                                   1604 ;pocket_platformer.c:420: if (rb_is_passable(dtx, dty)) return 0;
      0008E2 69               [ 4] 1605 	ld	l, c
                                   1606 ;	spillPairReg hl
                                   1607 ;	spillPairReg hl
      0008E3 DD 7E FF         [19] 1608 	ld	a, -1 (ix)
      0008E6 CDr8Br29         [17] 1609 	call	_rb_is_passable
      0008E9 B7               [ 4] 1610 	or	a, a
      0008EA 28 04            [12] 1611 	jr	Z, 00119$
      0008EC AF               [ 4] 1612 	xor	a, a
      0008ED C3rBEr09         [10] 1613 	jp	00129$
      0008F0                       1614 00119$:
                                   1615 ;pocket_platformer.c:423: unsigned char dtx = (unsigned char)((fpx>>8)/TILE_SIZE);
      0008F0 DD 4E EC         [19] 1616 	ld	c, -20 (ix)
      0008F3 DD 46 ED         [19] 1617 	ld	b, -19 (ix)
      0008F6 DD 5E EE         [19] 1618 	ld	e, -18 (ix)
      0008F9 DD 56 EF         [19] 1619 	ld	d, -17 (ix)
      0008FC DD 7E F5         [19] 1620 	ld	a, -11 (ix)
      0008FF B7               [ 4] 1621 	or	a, a
      000900 28 0C            [12] 1622 	jr	Z, 00137$
      000902 DD 4E F6         [19] 1623 	ld	c, -10 (ix)
      000905 DD 46 F7         [19] 1624 	ld	b, -9 (ix)
      000908 DD 5E F8         [19] 1625 	ld	e, -8 (ix)
      00090B DD 56 F9         [19] 1626 	ld	d, -7 (ix)
      00090E                       1627 00137$:
      00090E CB 38            [ 8] 1628 	srl	b
      000910 CB 19            [ 8] 1629 	rr	c
      000912 CB 38            [ 8] 1630 	srl	b
      000914 CB 19            [ 8] 1631 	rr	c
      000916 CB 38            [ 8] 1632 	srl	b
      000918 CB 19            [ 8] 1633 	rr	c
      00091A DD 71 FF         [19] 1634 	ld	-1 (ix), c
                                   1635 ;pocket_platformer.c:424: unsigned char dty = (unsigned char)((fpy>>8)/TILE_SIZE);
      00091D 21 0E 00         [10] 1636 	ld	hl, #14
      000920 39               [11] 1637 	add	hl, sp
      000921 EB               [ 4] 1638 	ex	de, hl
      000922 21 08 00         [10] 1639 	ld	hl, #8
      000925 39               [11] 1640 	add	hl, sp
      000926 01 04 00         [10] 1641 	ld	bc, #4
      000929 ED B0            [21] 1642 	ldir
      00092B DD 7E FA         [19] 1643 	ld	a, -6 (ix)
      00092E B7               [ 4] 1644 	or	a, a
      00092F 28 0E            [12] 1645 	jr	Z, 00138$
      000931 21 0E 00         [10] 1646 	ld	hl, #14
      000934 39               [11] 1647 	add	hl, sp
      000935 EB               [ 4] 1648 	ex	de, hl
      000936 21 13 00         [10] 1649 	ld	hl, #19
      000939 39               [11] 1650 	add	hl, sp
      00093A 01 04 00         [10] 1651 	ld	bc, #4
      00093D ED B0            [21] 1652 	ldir
      00093F                       1653 00138$:
      00093F DD 7E F6         [19] 1654 	ld	a, -10 (ix)
      000942 DD 77 FD         [19] 1655 	ld	-3 (ix), a
      000945 DD 7E F7         [19] 1656 	ld	a, -9 (ix)
      000948 DD 77 FE         [19] 1657 	ld	-2 (ix), a
      00094B DD CB FE 3E      [23] 1658 	srl	-2 (ix)
      00094F DD CB FD 1E      [23] 1659 	rr	-3 (ix)
      000953 DD CB FE 3E      [23] 1660 	srl	-2 (ix)
      000957 DD CB FD 1E      [23] 1661 	rr	-3 (ix)
      00095B DD CB FE 3E      [23] 1662 	srl	-2 (ix)
      00095F DD CB FD 1E      [23] 1663 	rr	-3 (ix)
      000963 DD 7E FD         [19] 1664 	ld	a, -3 (ix)
      000966 DD 77 FC         [19] 1665 	ld	-4 (ix), a
                                   1666 ;pocket_platformer.c:407: if (res_header->deko_vram_idx[di] && t == res_header->deko_vram_idx[di]) return 0;
      000969 2Ar00r00         [16] 1667 	ld	hl, (_res_header)
                                   1668 ;pocket_platformer.c:425: if ((res_header->disp_vram_idx && t == res_header->disp_vram_idx &&
      00096C DD 75 FD         [19] 1669 	ld	-3 (ix), l
      00096F DD 74 FE         [19] 1670 	ld	-2 (ix), h
      000972 11 07 00         [10] 1671 	ld	de, #0x0007
      000975 19               [11] 1672 	add	hl, de
      000976 7E               [ 7] 1673 	ld	a, (hl)
      000977 DD 77 FE         [19] 1674 	ld	-2 (ix), a
      00097A B7               [ 4] 1675 	or	a, a
      00097B 28 14            [12] 1676 	jr	Z, 00126$
      00097D DD 7E F4         [19] 1677 	ld	a, -12 (ix)
      000980 DD 96 FE         [19] 1678 	sub	a, -2 (ix)
      000983 20 0C            [12] 1679 	jr	NZ, 00126$
                                   1680 ;pocket_platformer.c:426: disp_is_gone(dtx, dty)) ||
      000985 DD 6E FC         [19] 1681 	ld	l, -4 (ix)
                                   1682 ;	spillPairReg hl
                                   1683 ;	spillPairReg hl
      000988 DD 7E FF         [19] 1684 	ld	a, -1 (ix)
      00098B CDr73r02         [17] 1685 	call	_disp_is_gone
      00098E B7               [ 4] 1686 	or	a, a
      00098F 20 28            [12] 1687 	jr	NZ, 00120$
      000991                       1688 00126$:
                                   1689 ;pocket_platformer.c:407: if (res_header->deko_vram_idx[di] && t == res_header->deko_vram_idx[di]) return 0;
      000991 2Ar00r00         [16] 1690 	ld	hl, (_res_header)
                                   1691 ;pocket_platformer.c:427: (res_header->conn_vram_idx && t == res_header->conn_vram_idx &&
      000994 DD 75 FD         [19] 1692 	ld	-3 (ix), l
      000997 DD 74 FE         [19] 1693 	ld	-2 (ix), h
      00099A 11 08 00         [10] 1694 	ld	de, #0x0008
      00099D 19               [11] 1695 	add	hl, de
      00099E 7E               [ 7] 1696 	ld	a, (hl)
      00099F DD 77 FE         [19] 1697 	ld	-2 (ix), a
      0009A2 B7               [ 4] 1698 	or	a, a
      0009A3 28 17            [12] 1699 	jr	Z, 00121$
      0009A5 DD 7E F4         [19] 1700 	ld	a, -12 (ix)
      0009A8 DD 96 FE         [19] 1701 	sub	a, -2 (ix)
      0009AB 20 0F            [12] 1702 	jr	NZ, 00121$
                                   1703 ;pocket_platformer.c:428: disp_is_gone(dtx, dty))) return 0;
      0009AD DD 6E FC         [19] 1704 	ld	l, -4 (ix)
                                   1705 ;	spillPairReg hl
                                   1706 ;	spillPairReg hl
      0009B0 DD 7E FF         [19] 1707 	ld	a, -1 (ix)
      0009B3 CDr73r02         [17] 1708 	call	_disp_is_gone
      0009B6 B7               [ 4] 1709 	or	a, a
      0009B7 28 03            [12] 1710 	jr	Z, 00121$
      0009B9                       1711 00120$:
      0009B9 AF               [ 4] 1712 	xor	a, a
      0009BA 18 02            [12] 1713 	jr	00129$
      0009BC                       1714 00121$:
                                   1715 ;pocket_platformer.c:430: return 1;
      0009BC 3E 01            [ 7] 1716 	ld	a, #0x01
      0009BE                       1717 00129$:
                                   1718 ;pocket_platformer.c:431: }
      0009BE DD F9            [10] 1719 	ld	sp, ix
      0009C0 DD E1            [14] 1720 	pop	ix
      0009C2 E1               [10] 1721 	pop	hl
      0009C3 C1               [10] 1722 	pop	bc
      0009C4 C1               [10] 1723 	pop	bc
      0009C5 E9               [ 4] 1724 	jp	(hl)
                                   1725 ;pocket_platformer.c:436: static void load_graphics(void) {
                                   1726 ;	---------------------------------
                                   1727 ; Function load_graphics
                                   1728 ; ---------------------------------
      0009C6                       1729 _load_graphics:
                                   1730 ;pocket_platformer.c:438: map_res_bank();
      0009C6 21 FF FF         [10] 1731 	ld	hl, #_ROM_bank_to_be_mapped_on_slot2
      0009C9 36 02            [10] 1732 	ld	(hl), #0x02
                                   1733 ;pocket_platformer.c:439: SMS_loadBGPalette(res_palette);
      0009CB 2Ar04r00         [16] 1734 	ld	hl, (_res_palette)
      0009CE CDr00r00         [17] 1735 	call	_SMS_loadBGPalette
                                   1736 ;pocket_platformer.c:440: SMS_setSpritePaletteColor(0, 0);
                                   1737 ;	spillPairReg hl
                                   1738 ;	spillPairReg hl
      0009D1 AF               [ 4] 1739 	xor	a, a
      0009D2 6F               [ 4] 1740 	ld	l, a
      0009D3 CDr00r00         [17] 1741 	call	_SMS_setSpritePaletteColor
                                   1742 ;pocket_platformer.c:441: for (i = 1; i < 16; i++)
      0009D6 0E 01            [ 7] 1743 	ld	c, #0x01
      0009D8                       1744 00102$:
                                   1745 ;pocket_platformer.c:442: SMS_setSpritePaletteColor(i, res_palette[i]);
      0009D8 2Ar04r00         [16] 1746 	ld	hl, (_res_palette)
      0009DB 06 00            [ 7] 1747 	ld	b, #0x00
      0009DD 09               [11] 1748 	add	hl, bc
      0009DE 6E               [ 7] 1749 	ld	l, (hl)
                                   1750 ;	spillPairReg hl
      0009DF C5               [11] 1751 	push	bc
      0009E0 79               [ 4] 1752 	ld	a, c
      0009E1 CDr00r00         [17] 1753 	call	_SMS_setSpritePaletteColor
      0009E4 C1               [10] 1754 	pop	bc
                                   1755 ;pocket_platformer.c:441: for (i = 1; i < 16; i++)
      0009E5 0C               [ 4] 1756 	inc	c
      0009E6 79               [ 4] 1757 	ld	a, c
      0009E7 D6 10            [ 7] 1758 	sub	a, #0x10
      0009E9 38 ED            [12] 1759 	jr	C, 00102$
                                   1760 ;pocket_platformer.c:444: SMS_loadTiles(res_tileset, VRAM_BG_BASE,
      0009EB 2Ar00r00         [16] 1761 	ld	hl, (_res_header)
      0009EE 11 05 00         [10] 1762 	ld	de, #0x0005
      0009F1 19               [11] 1763 	add	hl, de
      0009F2 6E               [ 7] 1764 	ld	l, (hl)
                                   1765 ;	spillPairReg hl
      0009F3 26 00            [ 7] 1766 	ld	h, #0x00
                                   1767 ;	spillPairReg hl
                                   1768 ;	spillPairReg hl
      0009F5 29               [11] 1769 	add	hl, hl
      0009F6 29               [11] 1770 	add	hl, hl
      0009F7 29               [11] 1771 	add	hl, hl
      0009F8 29               [11] 1772 	add	hl, hl
      0009F9 29               [11] 1773 	add	hl, hl
      0009FA ED 5Br06r00      [20] 1774 	ld	de, (_res_tileset)
      0009FE E5               [11] 1775 	push	hl
      0009FF 21 20 00         [10] 1776 	ld	hl, #0x0020
      000A02 CDr00r00         [17] 1777 	call	_SMS_VRAMmemcpy
                                   1778 ;pocket_platformer.c:447: SMS_loadTiles(res_sprites, 256u, 10u * 32u);
      000A05 ED 5Br08r00      [20] 1779 	ld	de, (_res_sprites)
      000A09 21 40 01         [10] 1780 	ld	hl, #0x0140
      000A0C E5               [11] 1781 	push	hl
      000A0D 21 00 20         [10] 1782 	ld	hl, #0x2000
      000A10 CDr00r00         [17] 1783 	call	_SMS_VRAMmemcpy
                                   1784 ;pocket_platformer.c:448: SMS_load1bppTiles(font_1bpp, VRAM_TILE_FONT, font_1bpp_size, 0, 1);
      000A13 3E 01            [ 7] 1785 	ld	a, #0x01
      000A15 F5               [11] 1786 	push	af
      000A16 33               [ 6] 1787 	inc	sp
      000A17 AF               [ 4] 1788 	xor	a, a
      000A18 F5               [11] 1789 	push	af
      000A19 33               [ 6] 1790 	inc	sp
      000A1A 2Ar00r00         [16] 1791 	ld	hl, (_font_1bpp_size)
      000A1D E5               [11] 1792 	push	hl
      000A1E 11 60 01         [10] 1793 	ld	de, #0x0160
      000A21 21r00r00         [10] 1794 	ld	hl, #_font_1bpp
      000A24 CDr00r00         [17] 1795 	call	_SMS_load1bppTiles
                                   1796 ;pocket_platformer.c:449: SMS_configureTextRenderer(VRAM_TILE_FONT - 32);
      000A27 21 40 01         [10] 1797 	ld	hl, #0x0140
                                   1798 ;pocket_platformer.c:450: }
      000A2A C3r00r00         [10] 1799 	jp	_SMS_configureTextRenderer
                                   1800 ;pocket_platformer.c:452: static void draw_tilemap_full(void) {
                                   1801 ;	---------------------------------
                                   1802 ; Function draw_tilemap_full
                                   1803 ; ---------------------------------
      000A2D                       1804 _draw_tilemap_full:
                                   1805 ;pocket_platformer.c:454: map_res_bank();
      000A2D 21 FF FF         [10] 1806 	ld	hl, #_ROM_bank_to_be_mapped_on_slot2
      000A30 36 02            [10] 1807 	ld	(hl), #0x02
                                   1808 ;pocket_platformer.c:455: for (y = 0; y < SCREEN_TILES_H; y++) {
      000A32 0E 00            [ 7] 1809 	ld	c, #0x00
      000A34                       1810 00108$:
                                   1811 ;pocket_platformer.c:456: SMS_setNextTileatXY(0, y);
      000A34 69               [ 4] 1812 	ld	l, c
                                   1813 ;	spillPairReg hl
                                   1814 ;	spillPairReg hl
      000A35 26 00            [ 7] 1815 	ld	h, #0x00
                                   1816 ;	spillPairReg hl
                                   1817 ;	spillPairReg hl
      000A37 29               [11] 1818 	add	hl, hl
      000A38 29               [11] 1819 	add	hl, hl
      000A39 29               [11] 1820 	add	hl, hl
      000A3A 29               [11] 1821 	add	hl, hl
      000A3B 29               [11] 1822 	add	hl, hl
      000A3C 29               [11] 1823 	add	hl, hl
      000A3D 7C               [ 4] 1824 	ld	a, h
      000A3E F6 78            [ 7] 1825 	or	a, #0x78
      000A40 67               [ 4] 1826 	ld	h, a
                                   1827 ;	spillPairReg hl
                                   1828 ;	spillPairReg hl
      000A41 C5               [11] 1829 	push	bc
      000A42 CF               [11] 1830 	rst	#0x08
      000A43 C1               [10] 1831 	pop	bc
                                   1832 ;pocket_platformer.c:457: for (x = 0; x < SCREEN_TILES_W; x++) {
      000A44 06 00            [ 7] 1833 	ld	b, #0x00
      000A46                       1834 00106$:
                                   1835 ;pocket_platformer.c:458: unsigned char t = (y < cur_level->map_h) ? get_tile(x, y) : 0;
      000A46 2Ar5Cr02         [16] 1836 	ld	hl, (_cur_level)
      000A49 23               [ 6] 1837 	inc	hl
      000A4A 5E               [ 7] 1838 	ld	e, (hl)
      000A4B 79               [ 4] 1839 	ld	a, c
      000A4C 93               [ 4] 1840 	sub	a, e
      000A4D 30 0C            [12] 1841 	jr	NC, 00112$
      000A4F C5               [11] 1842 	push	bc
      000A50 69               [ 4] 1843 	ld	l, c
                                   1844 ;	spillPairReg hl
                                   1845 ;	spillPairReg hl
      000A51 78               [ 4] 1846 	ld	a, b
      000A52 CDr1Er01         [17] 1847 	call	_get_tile
      000A55 C1               [10] 1848 	pop	bc
      000A56 5F               [ 4] 1849 	ld	e, a
      000A57 16 00            [ 7] 1850 	ld	d, #0x00
      000A59 18 03            [12] 1851 	jr	00113$
      000A5B                       1852 00112$:
      000A5B 11 00 00         [10] 1853 	ld	de, #0x0000
      000A5E                       1854 00113$:
                                   1855 ;pocket_platformer.c:460: SMS_setTile((unsigned int)(VRAM_BG_BASE + (t & 0x7F) - 1) | TILE_PRIORITY);
      000A5E 6B               [ 4] 1856 	ld	l, e
                                   1857 ;	spillPairReg hl
                                   1858 ;	spillPairReg hl
      000A5F 26 00            [ 7] 1859 	ld	h, #0x00
                                   1860 ;	spillPairReg hl
                                   1861 ;	spillPairReg hl
                                   1862 ;pocket_platformer.c:459: if (t & 0x80)
      000A61 CB 7B            [ 8] 1863 	bit	7, e
      000A63 28 09            [12] 1864 	jr	Z, 00102$
                                   1865 ;pocket_platformer.c:460: SMS_setTile((unsigned int)(VRAM_BG_BASE + (t & 0x7F) - 1) | TILE_PRIORITY);
      000A65 CB BD            [ 8] 1866 	res	7, l
      000A67 26 00            [ 7] 1867 	ld	h, #0x00
                                   1868 ;	spillPairReg hl
                                   1869 ;	spillPairReg hl
      000A69 CB E4            [ 8] 1870 	set	4, h
      000A6B DF               [11] 1871 	rst	#0x18
      000A6C 18 0C            [12] 1872 	jr	00107$
      000A6E                       1873 00102$:
                                   1874 ;pocket_platformer.c:462: SMS_setTile(t ? (unsigned int)(VRAM_BG_BASE + t - 1) : 0u);
      000A6E 7B               [ 4] 1875 	ld	a, e
      000A6F B7               [ 4] 1876 	or	a, a
      000A70 28 03            [12] 1877 	jr	Z, 00114$
      000A72 EB               [ 4] 1878 	ex	de, hl
      000A73 18 03            [12] 1879 	jr	00115$
      000A75                       1880 00114$:
      000A75 11 00 00         [10] 1881 	ld	de, #0x0000
      000A78                       1882 00115$:
      000A78 EB               [ 4] 1883 	ex	de, hl
      000A79 DF               [11] 1884 	rst	#0x18
      000A7A                       1885 00107$:
                                   1886 ;pocket_platformer.c:457: for (x = 0; x < SCREEN_TILES_W; x++) {
      000A7A 04               [ 4] 1887 	inc	b
      000A7B 78               [ 4] 1888 	ld	a, b
      000A7C D6 20            [ 7] 1889 	sub	a, #0x20
      000A7E 38 C6            [12] 1890 	jr	C, 00106$
                                   1891 ;pocket_platformer.c:455: for (y = 0; y < SCREEN_TILES_H; y++) {
      000A80 0C               [ 4] 1892 	inc	c
      000A81 79               [ 4] 1893 	ld	a, c
      000A82 D6 18            [ 7] 1894 	sub	a, #0x18
      000A84 38 AE            [12] 1895 	jr	C, 00108$
                                   1896 ;pocket_platformer.c:465: }
      000A86 C9               [10] 1897 	ret
                                   1898 ;pocket_platformer.c:467: static void draw_tile_column(unsigned char scr_col, unsigned char map_col) {
                                   1899 ;	---------------------------------
                                   1900 ; Function draw_tile_column
                                   1901 ; ---------------------------------
      000A87                       1902 _draw_tile_column:
      000A87 DD E5            [15] 1903 	push	ix
      000A89 DD 21 00 00      [14] 1904 	ld	ix,#0
      000A8D DD 39            [15] 1905 	add	ix,sp
      000A8F 3B               [ 6] 1906 	dec	sp
      000A90 47               [ 4] 1907 	ld	b, a
      000A91 4D               [ 4] 1908 	ld	c, l
                                   1909 ;pocket_platformer.c:469: map_res_bank();
      000A92 21 FF FF         [10] 1910 	ld	hl, #_ROM_bank_to_be_mapped_on_slot2
      000A95 36 02            [10] 1911 	ld	(hl), #0x02
                                   1912 ;pocket_platformer.c:470: SMS_setNextTileatXY(scr_col, 0);
      000A97 68               [ 4] 1913 	ld	l, b
                                   1914 ;	spillPairReg hl
                                   1915 ;	spillPairReg hl
      000A98 26 00            [ 7] 1916 	ld	h, #0x00
                                   1917 ;	spillPairReg hl
                                   1918 ;	spillPairReg hl
      000A9A 29               [11] 1919 	add	hl, hl
      000A9B 7C               [ 4] 1920 	ld	a, h
      000A9C F6 78            [ 7] 1921 	or	a, #0x78
      000A9E 67               [ 4] 1922 	ld	h, a
                                   1923 ;	spillPairReg hl
                                   1924 ;	spillPairReg hl
      000A9F C5               [11] 1925 	push	bc
      000AA0 CF               [11] 1926 	rst	#0x08
      000AA1 C1               [10] 1927 	pop	bc
                                   1928 ;pocket_platformer.c:471: for (y = 0; y < SCREEN_TILES_H; y++) {
      000AA2 DD 36 FF 00      [19] 1929 	ld	-1 (ix), #0x00
      000AA6                       1930 00105$:
                                   1931 ;pocket_platformer.c:472: unsigned char t = (y < cur_level->map_h) ? get_tile(map_col, y) : 0;
      000AA6 2Ar5Cr02         [16] 1932 	ld	hl, (_cur_level)
      000AA9 23               [ 6] 1933 	inc	hl
      000AAA 46               [ 7] 1934 	ld	b, (hl)
      000AAB DD 7E FF         [19] 1935 	ld	a, -1 (ix)
      000AAE 90               [ 4] 1936 	sub	a, b
      000AAF 30 0B            [12] 1937 	jr	NC, 00109$
      000AB1 C5               [11] 1938 	push	bc
      000AB2 DD 6E FF         [19] 1939 	ld	l, -1 (ix)
                                   1940 ;	spillPairReg hl
                                   1941 ;	spillPairReg hl
      000AB5 79               [ 4] 1942 	ld	a, c
      000AB6 CDr1Er01         [17] 1943 	call	_get_tile
      000AB9 C1               [10] 1944 	pop	bc
      000ABA 18 01            [12] 1945 	jr	00110$
      000ABC                       1946 00109$:
      000ABC AF               [ 4] 1947 	xor	a, a
      000ABD                       1948 00110$:
      000ABD 5F               [ 4] 1949 	ld	e, a
                                   1950 ;pocket_platformer.c:474: SMS_setTile((unsigned int)(VRAM_BG_BASE + (t & 0x7F) - 1) | TILE_PRIORITY);
      000ABE 6B               [ 4] 1951 	ld	l, e
                                   1952 ;	spillPairReg hl
                                   1953 ;	spillPairReg hl
      000ABF 26 00            [ 7] 1954 	ld	h, #0x00
                                   1955 ;	spillPairReg hl
                                   1956 ;	spillPairReg hl
                                   1957 ;pocket_platformer.c:473: if (t & 0x80)
      000AC1 CB 7B            [ 8] 1958 	bit	7, e
      000AC3 28 09            [12] 1959 	jr	Z, 00102$
                                   1960 ;pocket_platformer.c:474: SMS_setTile((unsigned int)(VRAM_BG_BASE + (t & 0x7F) - 1) | TILE_PRIORITY);
      000AC5 CB BD            [ 8] 1961 	res	7, l
      000AC7 26 00            [ 7] 1962 	ld	h, #0x00
                                   1963 ;	spillPairReg hl
                                   1964 ;	spillPairReg hl
      000AC9 CB E4            [ 8] 1965 	set	4, h
      000ACB DF               [11] 1966 	rst	#0x18
      000ACC 18 0C            [12] 1967 	jr	00106$
      000ACE                       1968 00102$:
                                   1969 ;pocket_platformer.c:476: SMS_setTile(t ? (unsigned int)(VRAM_BG_BASE + t - 1) : 0u);
      000ACE 7B               [ 4] 1970 	ld	a, e
      000ACF B7               [ 4] 1971 	or	a, a
      000AD0 28 03            [12] 1972 	jr	Z, 00111$
      000AD2 EB               [ 4] 1973 	ex	de, hl
      000AD3 18 03            [12] 1974 	jr	00112$
      000AD5                       1975 00111$:
      000AD5 11 00 00         [10] 1976 	ld	de, #0x0000
      000AD8                       1977 00112$:
      000AD8 EB               [ 4] 1978 	ex	de, hl
      000AD9 DF               [11] 1979 	rst	#0x18
      000ADA                       1980 00106$:
                                   1981 ;pocket_platformer.c:471: for (y = 0; y < SCREEN_TILES_H; y++) {
      000ADA DD 34 FF         [23] 1982 	inc	-1 (ix)
      000ADD DD 7E FF         [19] 1983 	ld	a, -1 (ix)
      000AE0 D6 18            [ 7] 1984 	sub	a, #0x18
      000AE2 38 C2            [12] 1985 	jr	C, 00105$
                                   1986 ;pocket_platformer.c:478: }
      000AE4 33               [ 6] 1987 	inc	sp
      000AE5 DD E1            [14] 1988 	pop	ix
      000AE7 C9               [10] 1989 	ret
                                   1990 ;pocket_platformer.c:483: static unsigned char coins_remaining(void) {
                                   1991 ;	---------------------------------
                                   1992 ; Function coins_remaining
                                   1993 ; ---------------------------------
      000AE8                       1994 _coins_remaining:
      000AE8 DD E5            [15] 1995 	push	ix
      000AEA DD 21 00 00      [14] 1996 	ld	ix,#0
      000AEE DD 39            [15] 1997 	add	ix,sp
      000AF0 F5               [11] 1998 	push	af
      000AF1 3B               [ 6] 1999 	dec	sp
                                   2000 ;pocket_platformer.c:485: unsigned char n = cur_level->obj_count < MAX_OBJECTS ? cur_level->obj_count : MAX_OBJECTS;
      000AF2 2Ar5Cr02         [16] 2001 	ld	hl, (_cur_level)
      000AF5 23               [ 6] 2002 	inc	hl
      000AF6 23               [ 6] 2003 	inc	hl
      000AF7 7E               [ 7] 2004 	ld	a, (hl)
      000AF8 FE 80            [ 7] 2005 	cp	a, #0x80
      000AFA 30 03            [12] 2006 	jr	NC, 00110$
      000AFC 4F               [ 4] 2007 	ld	c, a
      000AFD 18 03            [12] 2008 	jr	00111$
      000AFF                       2009 00110$:
      000AFF 01 80 00         [10] 2010 	ld	bc, #0x0080
      000B02                       2011 00111$:
      000B02 DD 71 FD         [19] 2012 	ld	-3 (ix), c
                                   2013 ;pocket_platformer.c:486: for (i = 0; i < n; i++)
      000B05 06 00            [ 7] 2014 	ld	b, #0x00
      000B07 58               [ 4] 2015 	ld	e, b
      000B08                       2016 00106$:
      000B08 7B               [ 4] 2017 	ld	a, e
      000B09 DD 96 FD         [19] 2018 	sub	a, -3 (ix)
      000B0C 30 32            [12] 2019 	jr	NC, 00104$
                                   2020 ;pocket_platformer.c:487: if (cur_objects[i].type == OBJ_COIN && !coin_collected[i]) count++;
      000B0E D5               [11] 2021 	push	de
      000B0F 16 00            [ 7] 2022 	ld	d, #0x00
      000B11 6B               [ 4] 2023 	ld	l, e
      000B12 62               [ 4] 2024 	ld	h, d
      000B13 29               [11] 2025 	add	hl, hl
      000B14 19               [11] 2026 	add	hl, de
      000B15 D1               [10] 2027 	pop	de
      000B16 7D               [ 4] 2028 	ld	a, l
      000B17 54               [ 4] 2029 	ld	d, h
      000B18 21r60r02         [10] 2030 	ld	hl, #_cur_objects
      000B1B 86               [ 7] 2031 	add	a, (hl)
      000B1C DD 77 FE         [19] 2032 	ld	-2 (ix), a
      000B1F 23               [ 6] 2033 	inc	hl
      000B20 7A               [ 4] 2034 	ld	a, d
      000B21 8E               [ 7] 2035 	adc	a, (hl)
      000B22 DD 77 FF         [19] 2036 	ld	-1 (ix), a
      000B25 DD 6E FE         [19] 2037 	ld	l, -2 (ix)
      000B28 DD 66 FF         [19] 2038 	ld	h, -1 (ix)
      000B2B 23               [ 6] 2039 	inc	hl
      000B2C 23               [ 6] 2040 	inc	hl
      000B2D 7E               [ 7] 2041 	ld	a, (hl)
      000B2E D6 05            [ 7] 2042 	sub	a, #0x05
      000B30 20 0B            [12] 2043 	jr	NZ, 00107$
      000B32 21r30r00         [10] 2044 	ld	hl, #_coin_collected
      000B35 16 00            [ 7] 2045 	ld	d, #0x00
      000B37 19               [11] 2046 	add	hl, de
      000B38 7E               [ 7] 2047 	ld	a, (hl)
      000B39 B7               [ 4] 2048 	or	a, a
      000B3A 20 01            [12] 2049 	jr	NZ, 00107$
      000B3C 04               [ 4] 2050 	inc	b
      000B3D                       2051 00107$:
                                   2052 ;pocket_platformer.c:486: for (i = 0; i < n; i++)
      000B3D 1C               [ 4] 2053 	inc	e
      000B3E 18 C8            [12] 2054 	jr	00106$
      000B40                       2055 00104$:
                                   2056 ;pocket_platformer.c:488: return count;
      000B40 78               [ 4] 2057 	ld	a, b
                                   2058 ;pocket_platformer.c:489: }
      000B41 DD F9            [10] 2059 	ld	sp, ix
      000B43 DD E1            [14] 2060 	pop	ix
      000B45 C9               [10] 2061 	ret
                                   2062 ;pocket_platformer.c:491: static unsigned int obj_sprite_tile(unsigned char type) {
                                   2063 ;	---------------------------------
                                   2064 ; Function obj_sprite_tile
                                   2065 ; ---------------------------------
      000B46                       2066 _obj_sprite_tile:
                                   2067 ;pocket_platformer.c:492: switch (type) {
      000B46 4F               [ 4] 2068 	ld	c, a
      000B47 D6 02            [ 7] 2069 	sub	a, #0x02
      000B49 28 13            [12] 2070 	jr	Z, 00101$
      000B4B 79               [ 4] 2071 	ld	a,c
      000B4C FE 03            [ 7] 2072 	cp	a,#0x03
      000B4E 28 20            [12] 2073 	jr	Z, 00103$
      000B50 FE 04            [ 7] 2074 	cp	a,#0x04
      000B52 28 20            [12] 2075 	jr	Z, 00104$
      000B54 FE 05            [ 7] 2076 	cp	a,#0x05
      000B56 28 20            [12] 2077 	jr	Z, 00105$
      000B58 D6 0C            [ 7] 2078 	sub	a, #0x0c
      000B5A 28 06            [12] 2079 	jr	Z, 00102$
      000B5C 18 1E            [12] 2080 	jr	00106$
                                   2081 ;pocket_platformer.c:493: case OBJ_FINISH_FLAG:        return VRAM_SPR_FINISH_FLAG;
      000B5E                       2082 00101$:
      000B5E 11 01 01         [10] 2083 	ld	de, #0x0101
      000B61 C9               [10] 2084 	ret
                                   2085 ;pocket_platformer.c:494: case OBJ_FINISH_FLAG_LOCKED: return coins_remaining() ? VRAM_SPR_FLAG_CLOSED : VRAM_SPR_FINISH_FLAG;
      000B62                       2086 00102$:
      000B62 CDrE8r0A         [17] 2087 	call	_coins_remaining
      000B65 B7               [ 4] 2088 	or	a, a
      000B66 28 04            [12] 2089 	jr	Z, 00110$
      000B68 11 09 01         [10] 2090 	ld	de, #0x0109
      000B6B C9               [10] 2091 	ret
      000B6C                       2092 00110$:
      000B6C 11 01 01         [10] 2093 	ld	de, #0x0101
      000B6F C9               [10] 2094 	ret
                                   2095 ;pocket_platformer.c:495: case OBJ_SPIKE:              return VRAM_SPR_SPIKE;
      000B70                       2096 00103$:
      000B70 11 02 01         [10] 2097 	ld	de, #0x0102
      000B73 C9               [10] 2098 	ret
                                   2099 ;pocket_platformer.c:496: case OBJ_TRAMPOLINE:         return VRAM_SPR_TRAMPOLINE;
      000B74                       2100 00104$:
      000B74 11 03 01         [10] 2101 	ld	de, #0x0103
      000B77 C9               [10] 2102 	ret
                                   2103 ;pocket_platformer.c:497: case OBJ_COIN:               return VRAM_SPR_COIN;
      000B78                       2104 00105$:
      000B78 11 04 01         [10] 2105 	ld	de, #0x0104
      000B7B C9               [10] 2106 	ret
                                   2107 ;pocket_platformer.c:498: default:                     return VRAM_SPR_FINISH_FLAG;
      000B7C                       2108 00106$:
      000B7C 11 01 01         [10] 2109 	ld	de, #0x0101
                                   2110 ;pocket_platformer.c:499: }
                                   2111 ;pocket_platformer.c:500: }
      000B7F C9               [10] 2112 	ret
                                   2113 ;pocket_platformer.c:502: static void draw_objects(void) {
                                   2114 ;	---------------------------------
                                   2115 ; Function draw_objects
                                   2116 ; ---------------------------------
      000B80                       2117 _draw_objects:
      000B80 DD E5            [15] 2118 	push	ix
      000B82 DD 21 00 00      [14] 2119 	ld	ix,#0
      000B86 DD 39            [15] 2120 	add	ix,sp
      000B88 F5               [11] 2121 	push	af
      000B89 3B               [ 6] 2122 	dec	sp
                                   2123 ;pocket_platformer.c:504: map_res_bank();
      000B8A 21 FF FF         [10] 2124 	ld	hl, #_ROM_bank_to_be_mapped_on_slot2
      000B8D 36 02            [10] 2125 	ld	(hl), #0x02
                                   2126 ;pocket_platformer.c:505: for (i = 0; i < cur_level->obj_count; i++) {
      000B8F 0E 00            [ 7] 2127 	ld	c, #0x00
      000B91                       2128 00122$:
      000B91 2Ar5Cr02         [16] 2129 	ld	hl, (_cur_level)
      000B94 23               [ 6] 2130 	inc	hl
      000B95 23               [ 6] 2131 	inc	hl
      000B96 46               [ 7] 2132 	ld	b, (hl)
      000B97 79               [ 4] 2133 	ld	a, c
      000B98 90               [ 4] 2134 	sub	a, b
      000B99 D2r69r0C         [10] 2135 	jp	NC, 00123$
                                   2136 ;pocket_platformer.c:506: level_object *obj = &cur_objects[i];
      000B9C 06 00            [ 7] 2137 	ld	b, #0x00
      000B9E 69               [ 4] 2138 	ld	l, c
      000B9F 60               [ 4] 2139 	ld	h, b
      000BA0 29               [11] 2140 	add	hl, hl
      000BA1 09               [11] 2141 	add	hl, bc
      000BA2 45               [ 4] 2142 	ld	b, l
      000BA3 54               [ 4] 2143 	ld	d, h
      000BA4 78               [ 4] 2144 	ld	a, b
      000BA5 21r60r02         [10] 2145 	ld	hl, #_cur_objects
      000BA8 86               [ 7] 2146 	add	a, (hl)
      000BA9 23               [ 6] 2147 	inc	hl
      000BAA 5F               [ 4] 2148 	ld	e, a
      000BAB 7A               [ 4] 2149 	ld	a, d
      000BAC 8E               [ 7] 2150 	adc	a, (hl)
      000BAD 57               [ 4] 2151 	ld	d, a
                                   2152 ;pocket_platformer.c:508: if (obj->type == OBJ_START_FLAG) continue;
      000BAE DD 73 FE         [19] 2153 	ld	-2 (ix), e
      000BB1 DD 72 FF         [19] 2154 	ld	-1 (ix), d
      000BB4 13               [ 6] 2155 	inc	de
      000BB5 13               [ 6] 2156 	inc	de
      000BB6 1A               [ 7] 2157 	ld	a, (de)
      000BB7 DD 77 FD         [19] 2158 	ld	-3 (ix), a
      000BBA 3D               [ 4] 2159 	dec	a
      000BBB CAr65r0C         [10] 2160 	jp	Z,00119$
                                   2161 ;pocket_platformer.c:509: if (obj->type == OBJ_COIN && coin_collected[i]) continue;
      000BBE DD 7E FD         [19] 2162 	ld	a, -3 (ix)
      000BC1 D6 05            [ 7] 2163 	sub	a, #0x05
      000BC3 20 0B            [12] 2164 	jr	NZ, 00104$
      000BC5 21r30r00         [10] 2165 	ld	hl, #_coin_collected
      000BC8 06 00            [ 7] 2166 	ld	b, #0x00
      000BCA 09               [11] 2167 	add	hl, bc
      000BCB 7E               [ 7] 2168 	ld	a, (hl)
      000BCC B7               [ 4] 2169 	or	a, a
      000BCD C2r65r0C         [10] 2170 	jp	NZ, 00119$
      000BD0                       2171 00104$:
                                   2172 ;pocket_platformer.c:511: if (obj->type == 7 || obj->type == 8 || obj->type == 9) continue;
      000BD0 DD 7E FD         [19] 2173 	ld	a, -3 (ix)
      000BD3 D6 07            [ 7] 2174 	sub	a, #0x07
      000BD5 CAr65r0C         [10] 2175 	jp	Z,00119$
      000BD8 DD 7E FD         [19] 2176 	ld	a, -3 (ix)
      000BDB D6 08            [ 7] 2177 	sub	a, #0x08
      000BDD CAr65r0C         [10] 2178 	jp	Z,00119$
      000BE0 DD 7E FD         [19] 2179 	ld	a, -3 (ix)
      000BE3 D6 09            [ 7] 2180 	sub	a, #0x09
      000BE5 CAr65r0C         [10] 2181 	jp	Z,00119$
                                   2182 ;pocket_platformer.c:512: if (obj->type == 10 || obj->type == 11) continue;
      000BE8 DD 7E FD         [19] 2183 	ld	a, -3 (ix)
      000BEB D6 0A            [ 7] 2184 	sub	a, #0x0a
      000BED 28 76            [12] 2185 	jr	Z, 00119$
      000BEF DD 7E FD         [19] 2186 	ld	a, -3 (ix)
      000BF2 D6 0B            [ 7] 2187 	sub	a, #0x0b
      000BF4 28 6F            [12] 2188 	jr	Z, 00119$
                                   2189 ;pocket_platformer.c:513: sx = (int)obj->x * TILE_SIZE - (int)camera_x;
      000BF6 DD 6E FE         [19] 2190 	ld	l, -2 (ix)
      000BF9 DD 66 FF         [19] 2191 	ld	h, -1 (ix)
      000BFC 6E               [ 7] 2192 	ld	l, (hl)
                                   2193 ;	spillPairReg hl
      000BFD 26 00            [ 7] 2194 	ld	h, #0x00
                                   2195 ;	spillPairReg hl
                                   2196 ;	spillPairReg hl
      000BFF 29               [11] 2197 	add	hl, hl
      000C00 29               [11] 2198 	add	hl, hl
      000C01 29               [11] 2199 	add	hl, hl
      000C02 ED 5Br2Cr00      [20] 2200 	ld	de, (_camera_x)
      000C06 BF               [ 4] 2201 	cp	a, a
      000C07 ED 52            [15] 2202 	sbc	hl, de
      000C09 EB               [ 4] 2203 	ex	de, hl
                                   2204 ;pocket_platformer.c:514: sy = (int)obj->y * TILE_SIZE;
      000C0A DD 6E FE         [19] 2205 	ld	l, -2 (ix)
                                   2206 ;	spillPairReg hl
                                   2207 ;	spillPairReg hl
      000C0D DD 66 FF         [19] 2208 	ld	h, -1 (ix)
                                   2209 ;	spillPairReg hl
                                   2210 ;	spillPairReg hl
      000C10 23               [ 6] 2211 	inc	hl
      000C11 6E               [ 7] 2212 	ld	l, (hl)
                                   2213 ;	spillPairReg hl
      000C12 26 00            [ 7] 2214 	ld	h, #0x00
                                   2215 ;	spillPairReg hl
                                   2216 ;	spillPairReg hl
      000C14 29               [11] 2217 	add	hl, hl
      000C15 29               [11] 2218 	add	hl, hl
      000C16 29               [11] 2219 	add	hl, hl
                                   2220 ;pocket_platformer.c:515: if (sx < -8 || sx > SCREEN_PX_W) continue;
      000C17 7B               [ 4] 2221 	ld	a, e
      000C18 D6 F8            [ 7] 2222 	sub	a, #0xf8
      000C1A 7A               [ 4] 2223 	ld	a, d
      000C1B 17               [ 4] 2224 	rla
      000C1C 3F               [ 4] 2225 	ccf
      000C1D 1F               [ 4] 2226 	rra
      000C1E DE 7F            [ 7] 2227 	sbc	a, #0x7f
      000C20 38 43            [12] 2228 	jr	C, 00119$
      000C22 AF               [ 4] 2229 	xor	a, a
      000C23 BB               [ 4] 2230 	cp	a, e
      000C24 3E 01            [ 7] 2231 	ld	a, #0x01
      000C26 9A               [ 4] 2232 	sbc	a, d
      000C27 E2r2Cr0C         [10] 2233 	jp	PO, 00199$
      000C2A EE 80            [ 7] 2234 	xor	a, #0x80
      000C2C                       2235 00199$:
      000C2C FAr65r0C         [10] 2236 	jp	M, 00119$
                                   2237 ;pocket_platformer.c:516: if (sy < 0  || sy > SCREEN_PX_H) continue;
      000C2F CB 7C            [ 8] 2238 	bit	7, h
      000C31 20 32            [12] 2239 	jr	NZ, 00119$
      000C33 3E C0            [ 7] 2240 	ld	a, #0xc0
      000C35 BD               [ 4] 2241 	cp	a, l
      000C36 3E 00            [ 7] 2242 	ld	a, #0x00
      000C38 9C               [ 4] 2243 	sbc	a, h
      000C39 E2r3Er0C         [10] 2244 	jp	PO, 00200$
      000C3C EE 80            [ 7] 2245 	xor	a, #0x80
      000C3E                       2246 00200$:
      000C3E FAr65r0C         [10] 2247 	jp	M, 00119$
                                   2248 ;pocket_platformer.c:517: SMS_addSprite((unsigned char)sx, (unsigned char)sy,
      000C41 DD 73 FF         [19] 2249 	ld	-1 (ix), e
      000C44 DD 36 FE 00      [19] 2250 	ld	-2 (ix), #0x00
      000C48 E5               [11] 2251 	push	hl
      000C49 C5               [11] 2252 	push	bc
      000C4A DD 7E FD         [19] 2253 	ld	a, -3 (ix)
      000C4D CDr46r0B         [17] 2254 	call	_obj_sprite_tile
      000C50 C1               [10] 2255 	pop	bc
      000C51 E1               [10] 2256 	pop	hl
      000C52 7B               [ 4] 2257 	ld	a, e
      000C53 06 00            [ 7] 2258 	ld	b, #0x00
      000C55 DD B6 FE         [19] 2259 	or	a, -2 (ix)
      000C58 5F               [ 4] 2260 	ld	e, a
      000C59 78               [ 4] 2261 	ld	a, b
      000C5A DD B6 FF         [19] 2262 	or	a, -1 (ix)
      000C5D 57               [ 4] 2263 	ld	d, a
      000C5E 26 00            [ 7] 2264 	ld	h, #0x00
                                   2265 ;	spillPairReg hl
                                   2266 ;	spillPairReg hl
      000C60 C5               [11] 2267 	push	bc
      000C61 CDr00r00         [17] 2268 	call	_SMS_addSprite_f
      000C64 C1               [10] 2269 	pop	bc
      000C65                       2270 00119$:
                                   2271 ;pocket_platformer.c:505: for (i = 0; i < cur_level->obj_count; i++) {
      000C65 0C               [ 4] 2272 	inc	c
      000C66 C3r91r0B         [10] 2273 	jp	00122$
      000C69                       2274 00123$:
                                   2275 ;pocket_platformer.c:520: }
      000C69 DD F9            [10] 2276 	ld	sp, ix
      000C6B DD E1            [14] 2277 	pop	ix
      000C6D C9               [10] 2278 	ret
                                   2279 ;pocket_platformer.c:522: static void draw_player(void) {
                                   2280 ;	---------------------------------
                                   2281 ; Function draw_player
                                   2282 ; ---------------------------------
      000C6E                       2283 _draw_player:
      000C6E DD E5            [15] 2284 	push	ix
      000C70 DD 21 00 00      [14] 2285 	ld	ix,#0
      000C74 DD 39            [15] 2286 	add	ix,sp
      000C76 21 F3 FF         [10] 2287 	ld	hl, #-13
      000C79 39               [11] 2288 	add	hl, sp
      000C7A F9               [ 6] 2289 	ld	sp, hl
                                   2290 ;pocket_platformer.c:523: int sx = (int)(player.x >> 8) - (int)camera_x;
      000C7B ED 4Br0Cr00      [20] 2291 	ld	bc, (#_player + 0)
      000C7F 2Ar0Er00         [16] 2292 	ld	hl, (#_player + 2)
      000C82 65               [ 4] 2293 	ld	h, l
                                   2294 ;	spillPairReg hl
                                   2295 ;	spillPairReg hl
      000C83 68               [ 4] 2296 	ld	l, b
                                   2297 ;	spillPairReg hl
                                   2298 ;	spillPairReg hl
      000C84 ED 4Br2Cr00      [20] 2299 	ld	bc, (_camera_x)
      000C88 BF               [ 4] 2300 	cp	a, a
      000C89 ED 42            [15] 2301 	sbc	hl, bc
      000C8B DD 75 FC         [19] 2302 	ld	-4 (ix), l
      000C8E DD 74 FD         [19] 2303 	ld	-3 (ix), h
                                   2304 ;pocket_platformer.c:524: int sy = (int)(player.y >> 8);
      000C91 11r10r00         [10] 2305 	ld	de, #_player + 4
      000C94 21 00 00         [10] 2306 	ld	hl, #0
      000C97 39               [11] 2307 	add	hl, sp
      000C98 EB               [ 4] 2308 	ex	de, hl
      000C99 01 04 00         [10] 2309 	ld	bc, #0x0004
      000C9C ED B0            [21] 2310 	ldir
      000C9E DD 7E F4         [19] 2311 	ld	a, -12 (ix)
      000CA1 DD 77 F8         [19] 2312 	ld	-8 (ix), a
      000CA4 DD 7E F5         [19] 2313 	ld	a, -11 (ix)
      000CA7 DD 77 F9         [19] 2314 	ld	-7 (ix), a
                                   2315 ;pocket_platformer.c:526: if (sx < -8 || sx > SCREEN_PX_W) return;
      000CAA DD 7E FC         [19] 2316 	ld	a, -4 (ix)
      000CAD D6 F8            [ 7] 2317 	sub	a, #0xf8
      000CAF DD 7E FD         [19] 2318 	ld	a, -3 (ix)
      000CB2 17               [ 4] 2319 	rla
      000CB3 3F               [ 4] 2320 	ccf
      000CB4 1F               [ 4] 2321 	rra
      000CB5 DE 7F            [ 7] 2322 	sbc	a, #0x7f
      000CB7 DAr6Dr0D         [10] 2323 	jp	C,00110$
      000CBA AF               [ 4] 2324 	xor	a, a
      000CBB DD BE FC         [19] 2325 	cp	a, -4 (ix)
      000CBE 3E 01            [ 7] 2326 	ld	a, #0x01
      000CC0 DD 9E FD         [19] 2327 	sbc	a, -3 (ix)
      000CC3 E2rC8r0C         [10] 2328 	jp	PO, 00134$
      000CC6 EE 80            [ 7] 2329 	xor	a, #0x80
      000CC8                       2330 00134$:
      000CC8 F2rCEr0C         [10] 2331 	jp	P, 00102$
      000CCB C3r6Dr0D         [10] 2332 	jp	00110$
      000CCE                       2333 00102$:
                                   2334 ;pocket_platformer.c:527: if (!player.on_ground)
      000CCE 3Ar1Cr00         [13] 2335 	ld	a, (#_player + 16)
      000CD1 B7               [ 4] 2336 	or	a, a
      000CD2 20 0A            [12] 2337 	jr	NZ, 00108$
                                   2338 ;pocket_platformer.c:528: tile = VRAM_SPR_PLAYER_JUMP;
      000CD4 DD 36 FE 08      [19] 2339 	ld	-2 (ix), #0x08
      000CD8 DD 36 FF 01      [19] 2340 	ld	-1 (ix), #0x01
      000CDC 18 2C            [12] 2341 	jr	00109$
      000CDE                       2342 00108$:
                                   2343 ;pocket_platformer.c:529: else if (player.vx != 0)
      000CDE ED 4Br14r00      [20] 2344 	ld	bc, (#_player + 8)
      000CE2 2Ar16r00         [16] 2345 	ld	hl, (#_player + 10)
      000CE5 7C               [ 4] 2346 	ld	a, h
      000CE6 B5               [ 4] 2347 	or	a, l
      000CE7 B0               [ 4] 2348 	or	a, b
      000CE8 B1               [ 4] 2349 	or	a, c
      000CE9 28 17            [12] 2350 	jr	Z, 00105$
                                   2351 ;pocket_platformer.c:530: tile = (player.anim_frame & 2) ? VRAM_SPR_PLAYER_WALK1 : VRAM_SPR_PLAYER_WALK0;
      000CEB 3Ar25r00         [13] 2352 	ld	a, (#_player + 25)
      000CEE CB 4F            [ 8] 2353 	bit	1, a
      000CF0 28 05            [12] 2354 	jr	Z, 00112$
      000CF2 01 07 01         [10] 2355 	ld	bc, #0x0107
      000CF5 18 03            [12] 2356 	jr	00113$
      000CF7                       2357 00112$:
      000CF7 01 06 01         [10] 2358 	ld	bc, #0x0106
      000CFA                       2359 00113$:
      000CFA DD 71 FE         [19] 2360 	ld	-2 (ix), c
      000CFD DD 70 FF         [19] 2361 	ld	-1 (ix), b
      000D00 18 08            [12] 2362 	jr	00109$
      000D02                       2363 00105$:
                                   2364 ;pocket_platformer.c:532: tile = VRAM_SPR_PLAYER_IDLE;
      000D02 DD 36 FE 05      [19] 2365 	ld	-2 (ix), #0x05
      000D06 DD 36 FF 01      [19] 2366 	ld	-1 (ix), #0x01
      000D0A                       2367 00109$:
                                   2368 ;pocket_platformer.c:533: SMS_addSprite((unsigned char)sx, (unsigned char)sy, (unsigned char)tile);
      000D0A DD 7E FC         [19] 2369 	ld	a, -4 (ix)
      000D0D DD 77 FA         [19] 2370 	ld	-6 (ix), a
      000D10 DD 36 FB 00      [19] 2371 	ld	-5 (ix), #0x00
      000D14 DD 7E FA         [19] 2372 	ld	a, -6 (ix)
      000D17 DD 77 FC         [19] 2373 	ld	-4 (ix), a
      000D1A DD 36 FD 00      [19] 2374 	ld	-3 (ix), #0x00
      000D1E DD 7E FC         [19] 2375 	ld	a, -4 (ix)
      000D21 DD 77 FB         [19] 2376 	ld	-5 (ix), a
      000D24 DD 36 FA 00      [19] 2377 	ld	-6 (ix), #0x00
      000D28 DD 7E FE         [19] 2378 	ld	a, -2 (ix)
      000D2B DD 77 FF         [19] 2379 	ld	-1 (ix), a
      000D2E DD 77 FE         [19] 2380 	ld	-2 (ix), a
      000D31 DD 36 FF 00      [19] 2381 	ld	-1 (ix), #0x00
      000D35 DD 7E FE         [19] 2382 	ld	a, -2 (ix)
      000D38 DD 77 FC         [19] 2383 	ld	-4 (ix), a
      000D3B DD 36 FD 00      [19] 2384 	ld	-3 (ix), #0x00
      000D3F DD 7E FA         [19] 2385 	ld	a, -6 (ix)
      000D42 DD B6 FC         [19] 2386 	or	a, -4 (ix)
      000D45 DD 77 FE         [19] 2387 	ld	-2 (ix), a
      000D48 DD 7E FB         [19] 2388 	ld	a, -5 (ix)
      000D4B DD B6 FD         [19] 2389 	or	a, -3 (ix)
      000D4E DD 77 FF         [19] 2390 	ld	-1 (ix), a
      000D51 DD 7E F8         [19] 2391 	ld	a, -8 (ix)
      000D54 DD 77 FD         [19] 2392 	ld	-3 (ix), a
      000D57 DD 77 FC         [19] 2393 	ld	-4 (ix), a
      000D5A DD 36 FD 00      [19] 2394 	ld	-3 (ix), #0x00
      000D5E DD 5E FE         [19] 2395 	ld	e, -2 (ix)
      000D61 DD 56 FF         [19] 2396 	ld	d, -1 (ix)
      000D64 DD 6E FC         [19] 2397 	ld	l, -4 (ix)
                                   2398 ;	spillPairReg hl
                                   2399 ;	spillPairReg hl
      000D67 DD 66 FD         [19] 2400 	ld	h, -3 (ix)
                                   2401 ;	spillPairReg hl
                                   2402 ;	spillPairReg hl
      000D6A CDr00r00         [17] 2403 	call	_SMS_addSprite_f
      000D6D                       2404 00110$:
                                   2405 ;pocket_platformer.c:534: }
      000D6D DD F9            [10] 2406 	ld	sp, ix
      000D6F DD E1            [14] 2407 	pop	ix
      000D71 C9               [10] 2408 	ret
                                   2409 ;pocket_platformer.c:544: static void apply_treadmill(void) {
                                   2410 ;	---------------------------------
                                   2411 ; Function apply_treadmill
                                   2412 ; ---------------------------------
      000D72                       2413 _apply_treadmill:
      000D72 DD E5            [15] 2414 	push	ix
      000D74 DD 21 00 00      [14] 2415 	ld	ix,#0
      000D78 DD 39            [15] 2416 	add	ix,sp
      000D7A 21 F3 FF         [10] 2417 	ld	hl, #-13
      000D7D 39               [11] 2418 	add	hl, sp
      000D7E F9               [ 6] 2419 	ld	sp, hl
                                   2420 ;pocket_platformer.c:545: long bonus_target = 0;
      000D7F AF               [ 4] 2421 	xor	a, a
      000D80 DD 77 F3         [19] 2422 	ld	-13 (ix), a
      000D83 DD 77 F4         [19] 2423 	ld	-12 (ix), a
      000D86 DD 77 F5         [19] 2424 	ld	-11 (ix), a
      000D89 DD 77 F6         [19] 2425 	ld	-10 (ix), a
                                   2426 ;pocket_platformer.c:546: if (player.on_ground && res_header->treadmill_right_vram_idx) {
      000D8C 3Ar1Cr00         [13] 2427 	ld	a, (#_player + 16)
      000D8F B7               [ 4] 2428 	or	a, a
      000D90 CArD1r0F         [10] 2429 	jp	Z, 00115$
      000D93 2Ar00r00         [16] 2430 	ld	hl, (_res_header)
      000D96 11 26 00         [10] 2431 	ld	de, #0x0026
      000D99 19               [11] 2432 	add	hl, de
      000D9A 7E               [ 7] 2433 	ld	a, (hl)
      000D9B B7               [ 4] 2434 	or	a, a
      000D9C CArD1r0F         [10] 2435 	jp	Z, 00115$
                                   2436 ;pocket_platformer.c:548: unsigned char ftx = (unsigned char)((player.x >> 8) / TILE_SIZE);
      000D9F ED 5Br0Cr00      [20] 2437 	ld	de, (#_player + 0)
      000DA3 2Ar0Er00         [16] 2438 	ld	hl, (#_player + 2)
      000DA6 06 08            [ 7] 2439 	ld	b, #0x08
      000DA8                       2440 00198$:
      000DA8 CB 2C            [ 8] 2441 	sra	h
      000DAA CB 1D            [ 8] 2442 	rr	l
      000DAC CB 1A            [ 8] 2443 	rr	d
      000DAE CB 1B            [ 8] 2444 	rr	e
      000DB0 10 F6            [13] 2445 	djnz	00198$
      000DB2 DD 73 F8         [19] 2446 	ld	-8 (ix), e
      000DB5 DD 72 F9         [19] 2447 	ld	-7 (ix), d
      000DB8 DD 75 FA         [19] 2448 	ld	-6 (ix), l
      000DBB DD 74 FB         [19] 2449 	ld	-5 (ix), h
      000DBE 21 09 00         [10] 2450 	ld	hl, #9
      000DC1 39               [11] 2451 	add	hl, sp
      000DC2 EB               [ 4] 2452 	ex	de, hl
      000DC3 21 05 00         [10] 2453 	ld	hl, #5
      000DC6 39               [11] 2454 	add	hl, sp
      000DC7 01 04 00         [10] 2455 	ld	bc, #4
      000DCA ED B0            [21] 2456 	ldir
      000DCC DD CB FB 7E      [20] 2457 	bit	7, -5 (ix)
      000DD0 28 20            [12] 2458 	jr	Z, 00125$
      000DD2 DD 7E F8         [19] 2459 	ld	a, -8 (ix)
      000DD5 C6 07            [ 7] 2460 	add	a, #0x07
      000DD7 DD 77 FC         [19] 2461 	ld	-4 (ix), a
      000DDA DD 7E F9         [19] 2462 	ld	a, -7 (ix)
      000DDD CE 00            [ 7] 2463 	adc	a, #0x00
      000DDF DD 77 FD         [19] 2464 	ld	-3 (ix), a
      000DE2 DD 7E FA         [19] 2465 	ld	a, -6 (ix)
      000DE5 CE 00            [ 7] 2466 	adc	a, #0x00
      000DE7 DD 77 FE         [19] 2467 	ld	-2 (ix), a
      000DEA DD 7E FB         [19] 2468 	ld	a, -5 (ix)
      000DED CE 00            [ 7] 2469 	adc	a, #0x00
      000DEF DD 77 FF         [19] 2470 	ld	-1 (ix), a
      000DF2                       2471 00125$:
      000DF2 DD 4E FC         [19] 2472 	ld	c, -4 (ix)
      000DF5 DD 46 FD         [19] 2473 	ld	b, -3 (ix)
      000DF8 CB 38            [ 8] 2474 	srl	b
      000DFA CB 19            [ 8] 2475 	rr	c
      000DFC CB 38            [ 8] 2476 	srl	b
      000DFE CB 19            [ 8] 2477 	rr	c
      000E00 CB 38            [ 8] 2478 	srl	b
      000E02 CB 19            [ 8] 2479 	rr	c
      000E04 DD 71 FF         [19] 2480 	ld	-1 (ix), c
                                   2481 ;pocket_platformer.c:549: unsigned char fty = (unsigned char)(((player.y >> 8) + PLAYER_H) / TILE_SIZE);
      000E07 ED 5Br10r00      [20] 2482 	ld	de, (#_player + 4)
      000E0B 2Ar12r00         [16] 2483 	ld	hl, (#_player + 6)
      000E0E 06 08            [ 7] 2484 	ld	b, #0x08
      000E10                       2485 00200$:
      000E10 CB 2C            [ 8] 2486 	sra	h
      000E12 CB 1D            [ 8] 2487 	rr	l
      000E14 CB 1A            [ 8] 2488 	rr	d
      000E16 CB 1B            [ 8] 2489 	rr	e
      000E18 10 F6            [13] 2490 	djnz	00200$
      000E1A 7B               [ 4] 2491 	ld	a, e
      000E1B C6 08            [ 7] 2492 	add	a, #0x08
      000E1D DD 77 F7         [19] 2493 	ld	-9 (ix), a
      000E20 7A               [ 4] 2494 	ld	a, d
      000E21 CE 00            [ 7] 2495 	adc	a, #0x00
      000E23 DD 77 F8         [19] 2496 	ld	-8 (ix), a
      000E26 7D               [ 4] 2497 	ld	a, l
      000E27 CE 00            [ 7] 2498 	adc	a, #0x00
      000E29 DD 77 F9         [19] 2499 	ld	-7 (ix), a
      000E2C 7C               [ 4] 2500 	ld	a, h
      000E2D CE 00            [ 7] 2501 	adc	a, #0x00
      000E2F DD 77 FA         [19] 2502 	ld	-6 (ix), a
      000E32 DD 7E F7         [19] 2503 	ld	a, -9 (ix)
      000E35 DD 77 FB         [19] 2504 	ld	-5 (ix), a
      000E38 DD 7E F8         [19] 2505 	ld	a, -8 (ix)
      000E3B DD 77 FC         [19] 2506 	ld	-4 (ix), a
      000E3E DD 7E F9         [19] 2507 	ld	a, -7 (ix)
      000E41 DD 77 FD         [19] 2508 	ld	-3 (ix), a
      000E44 DD 7E FA         [19] 2509 	ld	a, -6 (ix)
      000E47 DD 77 FE         [19] 2510 	ld	-2 (ix), a
      000E4A DD CB FA 7E      [20] 2511 	bit	7, -6 (ix)
      000E4E 28 18            [12] 2512 	jr	Z, 00126$
      000E50 7B               [ 4] 2513 	ld	a, e
      000E51 C6 0F            [ 7] 2514 	add	a, #0x0f
      000E53 DD 77 FB         [19] 2515 	ld	-5 (ix), a
      000E56 7A               [ 4] 2516 	ld	a, d
      000E57 CE 00            [ 7] 2517 	adc	a, #0x00
      000E59 DD 77 FC         [19] 2518 	ld	-4 (ix), a
      000E5C 7D               [ 4] 2519 	ld	a, l
      000E5D CE 00            [ 7] 2520 	adc	a, #0x00
      000E5F DD 77 FD         [19] 2521 	ld	-3 (ix), a
      000E62 7C               [ 4] 2522 	ld	a, h
      000E63 CE 00            [ 7] 2523 	adc	a, #0x00
      000E65 DD 77 FE         [19] 2524 	ld	-2 (ix), a
      000E68                       2525 00126$:
      000E68 DD 4E FB         [19] 2526 	ld	c, -5 (ix)
      000E6B DD 46 FC         [19] 2527 	ld	b, -4 (ix)
      000E6E CB 38            [ 8] 2528 	srl	b
      000E70 CB 19            [ 8] 2529 	rr	c
      000E72 CB 38            [ 8] 2530 	srl	b
      000E74 CB 19            [ 8] 2531 	rr	c
      000E76 CB 38            [ 8] 2532 	srl	b
      000E78 CB 19            [ 8] 2533 	rr	c
                                   2534 ;pocket_platformer.c:550: unsigned char ft  = get_tile(ftx, fty);
      000E7A DD 71 F7         [19] 2535 	ld	-9 (ix), c
      000E7D 69               [ 4] 2536 	ld	l, c
                                   2537 ;	spillPairReg hl
                                   2538 ;	spillPairReg hl
      000E7E DD 7E FF         [19] 2539 	ld	a, -1 (ix)
      000E81 CDr1Er01         [17] 2540 	call	_get_tile
      000E84 DD 77 FF         [19] 2541 	ld	-1 (ix), a
                                   2542 ;pocket_platformer.c:546: if (player.on_ground && res_header->treadmill_right_vram_idx) {
      000E87 ED 4Br00r00      [20] 2543 	ld	bc, (_res_header)
                                   2544 ;pocket_platformer.c:551: if (ft == res_header->treadmill_right_vram_idx)
      000E8B 59               [ 4] 2545 	ld	e, c
      000E8C 50               [ 4] 2546 	ld	d, b
      000E8D 21 26 00         [10] 2547 	ld	hl, #38
      000E90 19               [11] 2548 	add	hl, de
      000E91 6E               [ 7] 2549 	ld	l, (hl)
                                   2550 ;	spillPairReg hl
                                   2551 ;pocket_platformer.c:552: bonus_target = FP_MUL((long)res_physics->max_speed, FP(1.0/1.90));
      000E92 ED 5Br02r00      [20] 2552 	ld	de, (_res_physics)
                                   2553 ;pocket_platformer.c:551: if (ft == res_header->treadmill_right_vram_idx)
      000E96 DD 7E FF         [19] 2554 	ld	a, -1 (ix)
      000E99 95               [ 4] 2555 	sub	a, l
      000E9A 20 22            [12] 2556 	jr	NZ, 00112$
                                   2557 ;pocket_platformer.c:552: bonus_target = FP_MUL((long)res_physics->max_speed, FP(1.0/1.90));
      000E9C EB               [ 4] 2558 	ex	de,hl
      000E9D 5E               [ 7] 2559 	ld	e, (hl)
      000E9E 23               [ 6] 2560 	inc	hl
      000E9F 56               [ 7] 2561 	ld	d, (hl)
      000EA0 21 86 00         [10] 2562 	ld	hl, #0x0086
      000EA3 CDr00r00         [17] 2563 	call	___mulsint2slong
      000EA6 06 08            [ 7] 2564 	ld	b, #0x08
      000EA8                       2565 00204$:
      000EA8 CB 2C            [ 8] 2566 	sra	h
      000EAA CB 1D            [ 8] 2567 	rr	l
      000EAC CB 1A            [ 8] 2568 	rr	d
      000EAE CB 1B            [ 8] 2569 	rr	e
      000EB0 10 F6            [13] 2570 	djnz	00204$
      000EB2 33               [ 6] 2571 	inc	sp
      000EB3 33               [ 6] 2572 	inc	sp
      000EB4 D5               [11] 2573 	push	de
      000EB5 DD 75 F5         [19] 2574 	ld	-11 (ix), l
      000EB8 DD 74 F6         [19] 2575 	ld	-10 (ix), h
      000EBB C3rD1r0F         [10] 2576 	jp	00115$
      000EBE                       2577 00112$:
                                   2578 ;pocket_platformer.c:553: else if (res_header->treadmill_left_vram_idx &&
      000EBE 21 27 00         [10] 2579 	ld	hl, #0x0027
      000EC1 09               [11] 2580 	add	hl, bc
      000EC2 4E               [ 7] 2581 	ld	c, (hl)
      000EC3 79               [ 4] 2582 	ld	a, c
      000EC4 B7               [ 4] 2583 	or	a, a
      000EC5 28 35            [12] 2584 	jr	Z, 00108$
                                   2585 ;pocket_platformer.c:554: ft == res_header->treadmill_left_vram_idx)
      000EC7 DD 7E FF         [19] 2586 	ld	a, -1 (ix)
      000ECA 91               [ 4] 2587 	sub	a, c
      000ECB 20 2F            [12] 2588 	jr	NZ, 00108$
                                   2589 ;pocket_platformer.c:555: bonus_target = -FP_MUL((long)res_physics->max_speed, FP(1.0/1.90));
      000ECD EB               [ 4] 2590 	ex	de,hl
      000ECE 5E               [ 7] 2591 	ld	e, (hl)
      000ECF 23               [ 6] 2592 	inc	hl
      000ED0 56               [ 7] 2593 	ld	d, (hl)
      000ED1 21 86 00         [10] 2594 	ld	hl, #0x0086
      000ED4 CDr00r00         [17] 2595 	call	___mulsint2slong
      000ED7 EB               [ 4] 2596 	ex	de, hl
      000ED8 06 08            [ 7] 2597 	ld	b, #0x08
      000EDA                       2598 00208$:
      000EDA CB 2A            [ 8] 2599 	sra	d
      000EDC CB 1B            [ 8] 2600 	rr	e
      000EDE CB 1C            [ 8] 2601 	rr	h
      000EE0 CB 1D            [ 8] 2602 	rr	l
      000EE2 10 F6            [13] 2603 	djnz	00208$
      000EE4 AF               [ 4] 2604 	xor	a, a
      000EE5 95               [ 4] 2605 	sub	a, l
      000EE6 4F               [ 4] 2606 	ld	c, a
      000EE7 3E 00            [ 7] 2607 	ld	a, #0x00
      000EE9 9C               [ 4] 2608 	sbc	a, h
      000EEA 47               [ 4] 2609 	ld	b, a
      000EEB 21 00 00         [10] 2610 	ld	hl, #0x0000
      000EEE ED 52            [15] 2611 	sbc	hl, de
      000EF0 33               [ 6] 2612 	inc	sp
      000EF1 33               [ 6] 2613 	inc	sp
      000EF2 C5               [11] 2614 	push	bc
      000EF3 DD 75 F5         [19] 2615 	ld	-11 (ix), l
      000EF6 DD 74 F6         [19] 2616 	ld	-10 (ix), h
      000EF9 C3rD1r0F         [10] 2617 	jp	00115$
      000EFC                       2618 00108$:
                                   2619 ;pocket_platformer.c:558: unsigned char ftx2 = (unsigned char)(((player.x >> 8) + PLAYER_W - 1) / TILE_SIZE);
      000EFC ED 5Br0Cr00      [20] 2620 	ld	de, (#_player + 0)
      000F00 2Ar0Er00         [16] 2621 	ld	hl, (#_player + 2)
      000F03 06 08            [ 7] 2622 	ld	b, #0x08
      000F05                       2623 00210$:
      000F05 CB 2C            [ 8] 2624 	sra	h
      000F07 CB 1D            [ 8] 2625 	rr	l
      000F09 CB 1A            [ 8] 2626 	rr	d
      000F0B CB 1B            [ 8] 2627 	rr	e
      000F0D 10 F6            [13] 2628 	djnz	00210$
      000F0F DD 73 F8         [19] 2629 	ld	-8 (ix), e
      000F12 DD 72 F9         [19] 2630 	ld	-7 (ix), d
      000F15 DD 75 FA         [19] 2631 	ld	-6 (ix), l
      000F18 DD 74 FB         [19] 2632 	ld	-5 (ix), h
      000F1B DD 7E F8         [19] 2633 	ld	a, -8 (ix)
      000F1E C6 05            [ 7] 2634 	add	a, #0x05
      000F20 DD 77 FC         [19] 2635 	ld	-4 (ix), a
      000F23 DD 7E F9         [19] 2636 	ld	a, -7 (ix)
      000F26 CE 00            [ 7] 2637 	adc	a, #0x00
      000F28 DD 77 FD         [19] 2638 	ld	-3 (ix), a
      000F2B DD 7E FA         [19] 2639 	ld	a, -6 (ix)
      000F2E CE 00            [ 7] 2640 	adc	a, #0x00
      000F30 DD 77 FE         [19] 2641 	ld	-2 (ix), a
      000F33 DD 7E FB         [19] 2642 	ld	a, -5 (ix)
      000F36 CE 00            [ 7] 2643 	adc	a, #0x00
      000F38 DD 77 FF         [19] 2644 	ld	-1 (ix), a
      000F3B DD 4E FC         [19] 2645 	ld	c, -4 (ix)
      000F3E DD 46 FD         [19] 2646 	ld	b, -3 (ix)
      000F41 DD CB FF 7E      [20] 2647 	bit	7, -1 (ix)
      000F45 28 0C            [12] 2648 	jr	Z, 00127$
      000F47 DD 7E F8         [19] 2649 	ld	a, -8 (ix)
      000F4A C6 0C            [ 7] 2650 	add	a, #0x0c
      000F4C 4F               [ 4] 2651 	ld	c, a
      000F4D DD 7E F9         [19] 2652 	ld	a, -7 (ix)
      000F50 CE 00            [ 7] 2653 	adc	a, #0x00
      000F52 47               [ 4] 2654 	ld	b, a
      000F53                       2655 00127$:
      000F53 CB 38            [ 8] 2656 	srl	b
      000F55 CB 19            [ 8] 2657 	rr	c
      000F57 CB 38            [ 8] 2658 	srl	b
      000F59 CB 19            [ 8] 2659 	rr	c
      000F5B CB 38            [ 8] 2660 	srl	b
      000F5D CB 19            [ 8] 2661 	rr	c
                                   2662 ;pocket_platformer.c:559: unsigned char ft2  = get_tile(ftx2, fty);
      000F5F DD 6E F7         [19] 2663 	ld	l, -9 (ix)
                                   2664 ;	spillPairReg hl
                                   2665 ;	spillPairReg hl
      000F62 79               [ 4] 2666 	ld	a, c
      000F63 CDr1Er01         [17] 2667 	call	_get_tile
                                   2668 ;pocket_platformer.c:546: if (player.on_ground && res_header->treadmill_right_vram_idx) {
      000F66 ED 4Br00r00      [20] 2669 	ld	bc, (_res_header)
                                   2670 ;pocket_platformer.c:560: if (ft2 == res_header->treadmill_right_vram_idx)
      000F6A 59               [ 4] 2671 	ld	e, c
      000F6B 50               [ 4] 2672 	ld	d, b
      000F6C 21 26 00         [10] 2673 	ld	hl, #38
      000F6F 19               [11] 2674 	add	hl, de
      000F70 6E               [ 7] 2675 	ld	l, (hl)
                                   2676 ;	spillPairReg hl
                                   2677 ;pocket_platformer.c:552: bonus_target = FP_MUL((long)res_physics->max_speed, FP(1.0/1.90));
      000F71 ED 5Br02r00      [20] 2678 	ld	de, (_res_physics)
                                   2679 ;pocket_platformer.c:560: if (ft2 == res_header->treadmill_right_vram_idx)
      000F75 BD               [ 4] 2680 	cp	a, l
      000F76 20 21            [12] 2681 	jr	NZ, 00105$
                                   2682 ;pocket_platformer.c:561: bonus_target = FP_MUL((long)res_physics->max_speed, FP(1.0/1.90));
      000F78 EB               [ 4] 2683 	ex	de,hl
      000F79 5E               [ 7] 2684 	ld	e, (hl)
      000F7A 23               [ 6] 2685 	inc	hl
      000F7B 56               [ 7] 2686 	ld	d, (hl)
      000F7C 21 86 00         [10] 2687 	ld	hl, #0x0086
      000F7F CDr00r00         [17] 2688 	call	___mulsint2slong
      000F82 06 08            [ 7] 2689 	ld	b, #0x08
      000F84                       2690 00214$:
      000F84 CB 2C            [ 8] 2691 	sra	h
      000F86 CB 1D            [ 8] 2692 	rr	l
      000F88 CB 1A            [ 8] 2693 	rr	d
      000F8A CB 1B            [ 8] 2694 	rr	e
      000F8C 10 F6            [13] 2695 	djnz	00214$
      000F8E 33               [ 6] 2696 	inc	sp
      000F8F 33               [ 6] 2697 	inc	sp
      000F90 D5               [11] 2698 	push	de
      000F91 DD 75 F5         [19] 2699 	ld	-11 (ix), l
      000F94 DD 74 F6         [19] 2700 	ld	-10 (ix), h
      000F97 18 38            [12] 2701 	jr	00115$
      000F99                       2702 00105$:
                                   2703 ;pocket_platformer.c:553: else if (res_header->treadmill_left_vram_idx &&
      000F99 21 27 00         [10] 2704 	ld	hl, #39
      000F9C 09               [11] 2705 	add	hl, bc
      000F9D 4E               [ 7] 2706 	ld	c, (hl)
                                   2707 ;pocket_platformer.c:562: else if (res_header->treadmill_left_vram_idx &&
      000F9E 0C               [ 4] 2708 	inc	c
      000F9F 0D               [ 4] 2709 	dec	c
      000FA0 28 2F            [12] 2710 	jr	Z, 00115$
                                   2711 ;pocket_platformer.c:563: ft2 == res_header->treadmill_left_vram_idx)
      000FA2 91               [ 4] 2712 	sub	a, c
      000FA3 20 2C            [12] 2713 	jr	NZ, 00115$
                                   2714 ;pocket_platformer.c:564: bonus_target = -FP_MUL((long)res_physics->max_speed, FP(1.0/1.90));
      000FA5 EB               [ 4] 2715 	ex	de,hl
      000FA6 5E               [ 7] 2716 	ld	e, (hl)
      000FA7 23               [ 6] 2717 	inc	hl
      000FA8 56               [ 7] 2718 	ld	d, (hl)
      000FA9 21 86 00         [10] 2719 	ld	hl, #0x0086
      000FAC CDr00r00         [17] 2720 	call	___mulsint2slong
      000FAF EB               [ 4] 2721 	ex	de, hl
      000FB0 06 08            [ 7] 2722 	ld	b, #0x08
      000FB2                       2723 00218$:
      000FB2 CB 2A            [ 8] 2724 	sra	d
      000FB4 CB 1B            [ 8] 2725 	rr	e
      000FB6 CB 1C            [ 8] 2726 	rr	h
      000FB8 CB 1D            [ 8] 2727 	rr	l
      000FBA 10 F6            [13] 2728 	djnz	00218$
      000FBC AF               [ 4] 2729 	xor	a, a
      000FBD 95               [ 4] 2730 	sub	a, l
      000FBE 4F               [ 4] 2731 	ld	c, a
      000FBF 3E 00            [ 7] 2732 	ld	a, #0x00
      000FC1 9C               [ 4] 2733 	sbc	a, h
      000FC2 47               [ 4] 2734 	ld	b, a
      000FC3 21 00 00         [10] 2735 	ld	hl, #0x0000
      000FC6 ED 52            [15] 2736 	sbc	hl, de
      000FC8 33               [ 6] 2737 	inc	sp
      000FC9 33               [ 6] 2738 	inc	sp
      000FCA C5               [11] 2739 	push	bc
      000FCB DD 75 F5         [19] 2740 	ld	-11 (ix), l
      000FCE DD 74 F6         [19] 2741 	ld	-10 (ix), h
      000FD1                       2742 00115$:
                                   2743 ;pocket_platformer.c:567: if (bonus_target != 0) {
      000FD1 DD 7E F6         [19] 2744 	ld	a, -10 (ix)
      000FD4 DD B6 F5         [19] 2745 	or	a, -11 (ix)
      000FD7 DD B6 F4         [19] 2746 	or	a, -12 (ix)
      000FDA DD B6 F3         [19] 2747 	or	a, -13 (ix)
      000FDD 28 0E            [12] 2748 	jr	Z, 00121$
                                   2749 ;pocket_platformer.c:568: treadmill_bonus = bonus_target;
      000FDF 11r00r00         [10] 2750 	ld	de, #_treadmill_bonus
      000FE2 21 00 00         [10] 2751 	ld	hl, #0
      000FE5 39               [11] 2752 	add	hl, sp
      000FE6 01 04 00         [10] 2753 	ld	bc, #4
      000FE9 ED B0            [21] 2754 	ldir
      000FEB 18 6B            [12] 2755 	jr	00123$
      000FED                       2756 00121$:
                                   2757 ;pocket_platformer.c:571: treadmill_bonus = FP_MUL(treadmill_bonus, FP(0.95));
      000FED 2Ar02r00         [16] 2758 	ld	hl, (_treadmill_bonus + 2)
      000FF0 E5               [11] 2759 	push	hl
      000FF1 2Ar00r00         [16] 2760 	ld	hl, (_treadmill_bonus)
      000FF4 E5               [11] 2761 	push	hl
      000FF5 11 F3 00         [10] 2762 	ld	de, #0x00f3
      000FF8 21 00 00         [10] 2763 	ld	hl, #0x0000
      000FFB CDr00r00         [17] 2764 	call	__mullong
      000FFE F1               [10] 2765 	pop	af
      000FFF F1               [10] 2766 	pop	af
      001000 06 08            [ 7] 2767 	ld	b, #0x08
      001002                       2768 00220$:
      001002 CB 2C            [ 8] 2769 	sra	h
      001004 CB 1D            [ 8] 2770 	rr	l
      001006 CB 1A            [ 8] 2771 	rr	d
      001008 CB 1B            [ 8] 2772 	rr	e
      00100A 10 F6            [13] 2773 	djnz	00220$
      00100C ED 53r00r00      [20] 2774 	ld	(_treadmill_bonus), de
      001010 22r02r00         [16] 2775 	ld	(_treadmill_bonus + 2), hl
                                   2776 ;pocket_platformer.c:572: if (treadmill_bonus > -FP(0.1) && treadmill_bonus < FP(0.1))
      001013 3E E7            [ 7] 2777 	ld	a, #0xe7
      001015 FD 21r00r00      [14] 2778 	ld	iy, #_treadmill_bonus
      001019 FD BE 00         [19] 2779 	cp	a, 0 (iy)
      00101C ED 5Br01r00      [20] 2780 	ld	de, (_treadmill_bonus + 1)
      001020 21 FF FF         [10] 2781 	ld	hl, #0xffff
      001023 ED 52            [15] 2782 	sbc	hl, de
      001025 3E FF            [ 7] 2783 	ld	a, #0xff
      001027 FD 9E 03         [19] 2784 	sbc	a, 3 (iy)
      00102A E2r2Fr10         [10] 2785 	jp	PO, 00222$
      00102D EE 80            [ 7] 2786 	xor	a, #0x80
      00102F                       2787 00222$:
      00102F F2r58r10         [10] 2788 	jp	P, 00123$
      001032 3Ar00r00         [13] 2789 	ld	a, (_treadmill_bonus+0)
      001035 D6 19            [ 7] 2790 	sub	a, #0x19
      001037 3Ar01r00         [13] 2791 	ld	a, (_treadmill_bonus+1)
      00103A DE 00            [ 7] 2792 	sbc	a, #0x00
      00103C 3Ar02r00         [13] 2793 	ld	a, (_treadmill_bonus+2)
      00103F DE 00            [ 7] 2794 	sbc	a, #0x00
      001041 3Ar03r00         [13] 2795 	ld	a, (_treadmill_bonus+3)
      001044 17               [ 4] 2796 	rla
      001045 3F               [ 4] 2797 	ccf
      001046 1F               [ 4] 2798 	rra
      001047 DE 80            [ 7] 2799 	sbc	a, #0x80
      001049 30 0D            [12] 2800 	jr	NC, 00123$
                                   2801 ;pocket_platformer.c:573: treadmill_bonus = 0;
      00104B AF               [ 4] 2802 	xor	a, a
      00104C 32r00r00         [13] 2803 	ld	(_treadmill_bonus+0), a
      00104F 32r01r00         [13] 2804 	ld	(_treadmill_bonus+1), a
      001052 32r02r00         [13] 2805 	ld	(_treadmill_bonus+2), a
      001055 32r03r00         [13] 2806 	ld	(_treadmill_bonus+3), a
      001058                       2807 00123$:
                                   2808 ;pocket_platformer.c:575: }
      001058 DD F9            [10] 2809 	ld	sp, ix
      00105A DD E1            [14] 2810 	pop	ix
      00105C C9               [10] 2811 	ret
                                   2812 ;pocket_platformer.c:577: static void apply_gravity(void) {
                                   2813 ;	---------------------------------
                                   2814 ; Function apply_gravity
                                   2815 ; ---------------------------------
      00105D                       2816 _apply_gravity:
                                   2817 ;pocket_platformer.c:579: if (player.falling) {
      00105D 3Ar1Dr00         [13] 2818 	ld	a, (#_player + 17)
      001060 B7               [ 4] 2819 	or	a, a
      001061 C8               [11] 2820 	ret	Z
                                   2821 ;pocket_platformer.c:580: player.vy += GRAVITY;
      001062 2Ar18r00         [16] 2822 	ld	hl, (#(_player + 12) + 0)
      001065 ED 5Br1Ar00      [20] 2823 	ld	de, (#(_player + 12) + 2)
      001069 7D               [ 4] 2824 	ld	a, l
      00106A C6 2A            [ 7] 2825 	add	a, #0x2a
      00106C 4F               [ 4] 2826 	ld	c, a
      00106D 7C               [ 4] 2827 	ld	a, h
      00106E CE 00            [ 7] 2828 	adc	a, #0x00
      001070 47               [ 4] 2829 	ld	b, a
      001071 30 01            [12] 2830 	jr	NC, 00117$
      001073 13               [ 6] 2831 	inc	de
      001074                       2832 00117$:
      001074 ED 43r18r00      [20] 2833 	ld	((_player + 12)), bc
      001078 ED 53r1Ar00      [20] 2834 	ld	((_player + 12)+2), de
                                   2835 ;pocket_platformer.c:581: if (player.vy > MAX_VY)
      00107C AF               [ 4] 2836 	xor	a, a
      00107D B9               [ 4] 2837 	cp	a, c
      00107E 3E 07            [ 7] 2838 	ld	a, #0x07
      001080 98               [ 4] 2839 	sbc	a, b
      001081 3E 00            [ 7] 2840 	ld	a, #0x00
      001083 9B               [ 4] 2841 	sbc	a, e
      001084 3E 00            [ 7] 2842 	ld	a, #0x00
      001086 9A               [ 4] 2843 	sbc	a, d
      001087 E2r8Cr10         [10] 2844 	jp	PO, 00118$
      00108A EE 80            [ 7] 2845 	xor	a, #0x80
      00108C                       2846 00118$:
      00108C F0               [11] 2847 	ret	P
                                   2848 ;pocket_platformer.c:582: player.vy = MAX_VY;
      00108D 21 00 07         [10] 2849 	ld	hl, #0x0700
      001090 22r18r00         [16] 2850 	ld	((_player + 12)), hl
      001093 65               [ 4] 2851 	ld	h, l
      001094 22r1Ar00         [16] 2852 	ld	((_player + 12)+2), hl
                                   2853 ;pocket_platformer.c:584: }
      001097 C9               [10] 2854 	ret
                                   2855 ;pocket_platformer.c:586: static void handle_input(unsigned int joy, unsigned int joy_pressed) {
                                   2856 ;	---------------------------------
                                   2857 ; Function handle_input
                                   2858 ; ---------------------------------
      001098                       2859 _handle_input:
      001098 DD E5            [15] 2860 	push	ix
      00109A DD 21 00 00      [14] 2861 	ld	ix,#0
      00109E DD 39            [15] 2862 	add	ix,sp
      0010A0 FD 21 EE FF      [14] 2863 	ld	iy, #-18
      0010A4 FD 39            [15] 2864 	add	iy, sp
      0010A6 FD F9            [10] 2865 	ld	sp, iy
      0010A8 DD 75 FE         [19] 2866 	ld	-2 (ix), l
      0010AB DD 74 FF         [19] 2867 	ld	-1 (ix), h
      0010AE 4B               [ 4] 2868 	ld	c, e
      0010AF 42               [ 4] 2869 	ld	b, d
                                   2870 ;pocket_platformer.c:587: long max_spd = (long)res_physics->max_speed;
      0010B0 2Ar02r00         [16] 2871 	ld	hl, (_res_physics)
      0010B3 DD 75 F8         [19] 2872 	ld	-8 (ix), l
      0010B6 DD 74 F9         [19] 2873 	ld	-7 (ix), h
      0010B9 5E               [ 7] 2874 	ld	e, (hl)
      0010BA 23               [ 6] 2875 	inc	hl
      0010BB 7E               [ 7] 2876 	ld	a, (hl)
      0010BC DD 73 EE         [19] 2877 	ld	-18 (ix), e
      0010BF DD 77 EF         [19] 2878 	ld	-17 (ix), a
      0010C2 07               [ 4] 2879 	rlca
      0010C3 9F               [ 4] 2880 	sbc	a, a
      0010C4 DD 77 F0         [19] 2881 	ld	-16 (ix), a
      0010C7 DD 77 F1         [19] 2882 	ld	-15 (ix), a
                                   2883 ;pocket_platformer.c:588: long accel = player.on_ground ? (long)res_physics->ground_accel : (long)res_physics->air_accel;
      0010CA 21r1Cr00         [10] 2884 	ld	hl, #(_player + 16)
      0010CD 5E               [ 7] 2885 	ld	e, (hl)
      0010CE 7B               [ 4] 2886 	ld	a, e
      0010CF B7               [ 4] 2887 	or	a, a
      0010D0 28 1B            [12] 2888 	jr	Z, 00168$
      0010D2 DD 6E F8         [19] 2889 	ld	l, -8 (ix)
                                   2890 ;	spillPairReg hl
                                   2891 ;	spillPairReg hl
      0010D5 DD 66 F9         [19] 2892 	ld	h, -7 (ix)
                                   2893 ;	spillPairReg hl
                                   2894 ;	spillPairReg hl
      0010D8 23               [ 6] 2895 	inc	hl
      0010D9 23               [ 6] 2896 	inc	hl
      0010DA 56               [ 7] 2897 	ld	d, (hl)
      0010DB 23               [ 6] 2898 	inc	hl
      0010DC 7E               [ 7] 2899 	ld	a, (hl)
      0010DD DD 72 FA         [19] 2900 	ld	-6 (ix), d
      0010E0 DD 77 FB         [19] 2901 	ld	-5 (ix), a
      0010E3 07               [ 4] 2902 	rlca
      0010E4 9F               [ 4] 2903 	sbc	a, a
      0010E5 DD 77 FC         [19] 2904 	ld	-4 (ix), a
      0010E8 DD 77 FD         [19] 2905 	ld	-3 (ix), a
      0010EB 18 1E            [12] 2906 	jr	00169$
      0010ED                       2907 00168$:
      0010ED DD 6E F8         [19] 2908 	ld	l, -8 (ix)
                                   2909 ;	spillPairReg hl
                                   2910 ;	spillPairReg hl
      0010F0 DD 66 F9         [19] 2911 	ld	h, -7 (ix)
                                   2912 ;	spillPairReg hl
                                   2913 ;	spillPairReg hl
      0010F3 C5               [11] 2914 	push	bc
      0010F4 01 06 00         [10] 2915 	ld	bc, #0x0006
      0010F7 09               [11] 2916 	add	hl, bc
      0010F8 C1               [10] 2917 	pop	bc
      0010F9 7E               [ 7] 2918 	ld	a, (hl)
      0010FA 23               [ 6] 2919 	inc	hl
      0010FB 66               [ 7] 2920 	ld	h, (hl)
                                   2921 ;	spillPairReg hl
                                   2922 ;	spillPairReg hl
                                   2923 ;	spillPairReg hl
      0010FC DD 77 FA         [19] 2924 	ld	-6 (ix), a
      0010FF 7C               [ 4] 2925 	ld	a, h
      001100 DD 77 FB         [19] 2926 	ld	-5 (ix), a
      001103 07               [ 4] 2927 	rlca
      001104 9F               [ 4] 2928 	sbc	a, a
      001105 DD 77 FC         [19] 2929 	ld	-4 (ix), a
      001108 DD 77 FD         [19] 2930 	ld	-3 (ix), a
      00110B                       2931 00169$:
      00110B DD 7E FA         [19] 2932 	ld	a, -6 (ix)
      00110E DD 77 F2         [19] 2933 	ld	-14 (ix), a
      001111 DD 7E FB         [19] 2934 	ld	a, -5 (ix)
      001114 DD 77 F3         [19] 2935 	ld	-13 (ix), a
      001117 DD 7E FC         [19] 2936 	ld	a, -4 (ix)
      00111A DD 77 F4         [19] 2937 	ld	-12 (ix), a
      00111D DD 7E FD         [19] 2938 	ld	a, -3 (ix)
      001120 DD 77 F5         [19] 2939 	ld	-11 (ix), a
                                   2940 ;pocket_platformer.c:589: long fric  = player.on_ground ? (long)res_physics->ground_friction : (long)res_physics->air_friction;
      001123 7B               [ 4] 2941 	ld	a, e
      001124 B7               [ 4] 2942 	or	a, a
      001125 28 1E            [12] 2943 	jr	Z, 00170$
      001127 DD 5E F8         [19] 2944 	ld	e, -8 (ix)
      00112A DD 56 F9         [19] 2945 	ld	d, -7 (ix)
      00112D 21 04 00         [10] 2946 	ld	hl, #4
      001130 19               [11] 2947 	add	hl, de
      001131 5E               [ 7] 2948 	ld	e, (hl)
      001132 23               [ 6] 2949 	inc	hl
      001133 56               [ 7] 2950 	ld	d, (hl)
      001134 DD 73 FA         [19] 2951 	ld	-6 (ix), e
      001137 7A               [ 4] 2952 	ld	a, d
      001138 DD 77 FB         [19] 2953 	ld	-5 (ix), a
      00113B 07               [ 4] 2954 	rlca
      00113C 9F               [ 4] 2955 	sbc	a, a
      00113D DD 77 FC         [19] 2956 	ld	-4 (ix), a
      001140 DD 77 FD         [19] 2957 	ld	-3 (ix), a
      001143 18 1B            [12] 2958 	jr	00171$
      001145                       2959 00170$:
      001145 DD 5E F8         [19] 2960 	ld	e, -8 (ix)
      001148 DD 56 F9         [19] 2961 	ld	d, -7 (ix)
      00114B 21 08 00         [10] 2962 	ld	hl, #8
      00114E 19               [11] 2963 	add	hl, de
      00114F 5E               [ 7] 2964 	ld	e, (hl)
      001150 23               [ 6] 2965 	inc	hl
      001151 7E               [ 7] 2966 	ld	a, (hl)
      001152 DD 73 FA         [19] 2967 	ld	-6 (ix), e
      001155 DD 77 FB         [19] 2968 	ld	-5 (ix), a
      001158 07               [ 4] 2969 	rlca
      001159 9F               [ 4] 2970 	sbc	a, a
      00115A DD 77 FC         [19] 2971 	ld	-4 (ix), a
      00115D DD 77 FD         [19] 2972 	ld	-3 (ix), a
      001160                       2973 00171$:
                                   2974 ;pocket_platformer.c:593: player.vx -= accel;
                                   2975 ;pocket_platformer.c:595: player.facing_left = 1;
                                   2976 ;pocket_platformer.c:601: player.vx = FP_MUL(player.vx, fric);
      001160 C5               [11] 2977 	push	bc
      001161 11r14r00         [10] 2978 	ld	de, #(_player + 8)
      001164 21 0A 00         [10] 2979 	ld	hl, #10
      001167 39               [11] 2980 	add	hl, sp
      001168 EB               [ 4] 2981 	ex	de, hl
      001169 01 04 00         [10] 2982 	ld	bc, #0x0004
      00116C ED B0            [21] 2983 	ldir
      00116E C1               [10] 2984 	pop	bc
                                   2985 ;pocket_platformer.c:592: if (joy & PORT_A_KEY_LEFT) {
      00116F DD CB FE 56      [20] 2986 	bit	2, -2 (ix)
      001173 CArFCr11         [10] 2987 	jp	Z,00112$
                                   2988 ;pocket_platformer.c:593: player.vx -= accel;
      001176 DD 7E F6         [19] 2989 	ld	a, -10 (ix)
      001179 DD 96 F2         [19] 2990 	sub	a, -14 (ix)
      00117C DD 77 FA         [19] 2991 	ld	-6 (ix), a
      00117F DD 7E F7         [19] 2992 	ld	a, -9 (ix)
      001182 DD 9E F3         [19] 2993 	sbc	a, -13 (ix)
      001185 DD 77 FB         [19] 2994 	ld	-5 (ix), a
      001188 DD 7E F8         [19] 2995 	ld	a, -8 (ix)
      00118B DD 9E F4         [19] 2996 	sbc	a, -12 (ix)
      00118E DD 77 FC         [19] 2997 	ld	-4 (ix), a
      001191 DD 7E F9         [19] 2998 	ld	a, -7 (ix)
      001194 DD 9E F5         [19] 2999 	sbc	a, -11 (ix)
      001197 DD 77 FD         [19] 3000 	ld	-3 (ix), a
      00119A C5               [11] 3001 	push	bc
      00119B 11r14r00         [10] 3002 	ld	de, #(_player + 8)
      00119E 21 0E 00         [10] 3003 	ld	hl, #14
      0011A1 39               [11] 3004 	add	hl, sp
      0011A2 01 04 00         [10] 3005 	ld	bc, #0x0004
      0011A5 ED B0            [21] 3006 	ldir
      0011A7 C1               [10] 3007 	pop	bc
                                   3008 ;pocket_platformer.c:594: if (player.vx < -max_spd) player.vx = -max_spd;
      0011A8 AF               [ 4] 3009 	xor	a, a
      0011A9 DD 96 EE         [19] 3010 	sub	a, -18 (ix)
      0011AC DD 77 F6         [19] 3011 	ld	-10 (ix), a
      0011AF 3E 00            [ 7] 3012 	ld	a, #0x00
      0011B1 DD 9E EF         [19] 3013 	sbc	a, -17 (ix)
      0011B4 DD 77 F7         [19] 3014 	ld	-9 (ix), a
      0011B7 3E 00            [ 7] 3015 	ld	a, #0x00
      0011B9 DD 9E F0         [19] 3016 	sbc	a, -16 (ix)
      0011BC DD 77 F8         [19] 3017 	ld	-8 (ix), a
      0011BF 9F               [ 4] 3018 	sbc	a, a
      0011C0 DD 96 F1         [19] 3019 	sub	a, -15 (ix)
      0011C3 DD 77 F9         [19] 3020 	ld	-7 (ix), a
      0011C6 DD 7E FA         [19] 3021 	ld	a, -6 (ix)
      0011C9 DD 96 F6         [19] 3022 	sub	a, -10 (ix)
      0011CC DD 7E FB         [19] 3023 	ld	a, -5 (ix)
      0011CF DD 9E F7         [19] 3024 	sbc	a, -9 (ix)
      0011D2 DD 7E FC         [19] 3025 	ld	a, -4 (ix)
      0011D5 DD 9E F8         [19] 3026 	sbc	a, -8 (ix)
      0011D8 DD 7E FD         [19] 3027 	ld	a, -3 (ix)
      0011DB DD 9E F9         [19] 3028 	sbc	a, -7 (ix)
      0011DE E2rE3r11         [10] 3029 	jp	PO, 00507$
      0011E1 EE 80            [ 7] 3030 	xor	a, #0x80
      0011E3                       3031 00507$:
      0011E3 F2rF4r11         [10] 3032 	jp	P, 00102$
      0011E6 C5               [11] 3033 	push	bc
      0011E7 11r14r00         [10] 3034 	ld	de, #(_player + 8)
      0011EA 21 0A 00         [10] 3035 	ld	hl, #10
      0011ED 39               [11] 3036 	add	hl, sp
      0011EE 01 04 00         [10] 3037 	ld	bc, #0x0004
      0011F1 ED B0            [21] 3038 	ldir
      0011F3 C1               [10] 3039 	pop	bc
      0011F4                       3040 00102$:
                                   3041 ;pocket_platformer.c:595: player.facing_left = 1;
      0011F4 21r23r00         [10] 3042 	ld	hl, #(_player + 23)
      0011F7 36 01            [10] 3043 	ld	(hl), #0x01
      0011F9 C3rEFr12         [10] 3044 	jp	00113$
      0011FC                       3045 00112$:
                                   3046 ;pocket_platformer.c:596: } else if (joy & PORT_A_KEY_RIGHT) {
      0011FC DD CB FE 5E      [20] 3047 	bit	3, -2 (ix)
      001200 28 68            [12] 3048 	jr	Z, 00109$
                                   3049 ;pocket_platformer.c:597: player.vx += accel;
      001202 DD 7E F6         [19] 3050 	ld	a, -10 (ix)
      001205 DD 86 F2         [19] 3051 	add	a, -14 (ix)
      001208 DD 77 FA         [19] 3052 	ld	-6 (ix), a
      00120B DD 7E F7         [19] 3053 	ld	a, -9 (ix)
      00120E DD 8E F3         [19] 3054 	adc	a, -13 (ix)
      001211 DD 77 FB         [19] 3055 	ld	-5 (ix), a
      001214 DD 7E F8         [19] 3056 	ld	a, -8 (ix)
      001217 DD 8E F4         [19] 3057 	adc	a, -12 (ix)
      00121A DD 77 FC         [19] 3058 	ld	-4 (ix), a
      00121D DD 7E F9         [19] 3059 	ld	a, -7 (ix)
      001220 DD 8E F5         [19] 3060 	adc	a, -11 (ix)
      001223 DD 77 FD         [19] 3061 	ld	-3 (ix), a
      001226 C5               [11] 3062 	push	bc
      001227 11r14r00         [10] 3063 	ld	de, #(_player + 8)
      00122A 21 0E 00         [10] 3064 	ld	hl, #14
      00122D 39               [11] 3065 	add	hl, sp
      00122E 01 04 00         [10] 3066 	ld	bc, #0x0004
      001231 ED B0            [21] 3067 	ldir
      001233 C1               [10] 3068 	pop	bc
                                   3069 ;pocket_platformer.c:598: if (player.vx > max_spd) player.vx = max_spd;
      001234 DD 7E EE         [19] 3070 	ld	a, -18 (ix)
      001237 DD 96 FA         [19] 3071 	sub	a, -6 (ix)
      00123A DD 7E EF         [19] 3072 	ld	a, -17 (ix)
      00123D DD 9E FB         [19] 3073 	sbc	a, -5 (ix)
      001240 DD 7E F0         [19] 3074 	ld	a, -16 (ix)
      001243 DD 9E FC         [19] 3075 	sbc	a, -4 (ix)
      001246 DD 7E F1         [19] 3076 	ld	a, -15 (ix)
      001249 DD 9E FD         [19] 3077 	sbc	a, -3 (ix)
      00124C E2r51r12         [10] 3078 	jp	PO, 00509$
      00124F EE 80            [ 7] 3079 	xor	a, #0x80
      001251                       3080 00509$:
      001251 F2r62r12         [10] 3081 	jp	P, 00104$
      001254 C5               [11] 3082 	push	bc
      001255 11r14r00         [10] 3083 	ld	de, #(_player + 8)
      001258 21 02 00         [10] 3084 	ld	hl, #2
      00125B 39               [11] 3085 	add	hl, sp
      00125C 01 04 00         [10] 3086 	ld	bc, #0x0004
      00125F ED B0            [21] 3087 	ldir
      001261 C1               [10] 3088 	pop	bc
      001262                       3089 00104$:
                                   3090 ;pocket_platformer.c:599: player.facing_left = 0;
      001262 21r23r00         [10] 3091 	ld	hl, #(_player + 23)
      001265 36 00            [10] 3092 	ld	(hl), #0x00
      001267 C3rEFr12         [10] 3093 	jp	00113$
      00126A                       3094 00109$:
                                   3095 ;pocket_platformer.c:601: player.vx = FP_MUL(player.vx, fric);
      00126A C5               [11] 3096 	push	bc
      00126B DD 6E FC         [19] 3097 	ld	l, -4 (ix)
                                   3098 ;	spillPairReg hl
                                   3099 ;	spillPairReg hl
      00126E DD 66 FD         [19] 3100 	ld	h, -3 (ix)
                                   3101 ;	spillPairReg hl
                                   3102 ;	spillPairReg hl
      001271 E5               [11] 3103 	push	hl
      001272 DD 6E FA         [19] 3104 	ld	l, -6 (ix)
                                   3105 ;	spillPairReg hl
                                   3106 ;	spillPairReg hl
      001275 DD 66 FB         [19] 3107 	ld	h, -5 (ix)
                                   3108 ;	spillPairReg hl
                                   3109 ;	spillPairReg hl
      001278 E5               [11] 3110 	push	hl
      001279 DD 5E F6         [19] 3111 	ld	e, -10 (ix)
      00127C DD 56 F7         [19] 3112 	ld	d, -9 (ix)
      00127F DD 6E F8         [19] 3113 	ld	l, -8 (ix)
                                   3114 ;	spillPairReg hl
                                   3115 ;	spillPairReg hl
      001282 DD 66 F9         [19] 3116 	ld	h, -7 (ix)
                                   3117 ;	spillPairReg hl
                                   3118 ;	spillPairReg hl
      001285 CDr00r00         [17] 3119 	call	__mullong
      001288 F1               [10] 3120 	pop	af
      001289 F1               [10] 3121 	pop	af
      00128A C1               [10] 3122 	pop	bc
      00128B 3E 08            [ 7] 3123 	ld	a, #0x08
      00128D                       3124 00510$:
      00128D CB 2C            [ 8] 3125 	sra	h
      00128F CB 1D            [ 8] 3126 	rr	l
      001291 CB 1A            [ 8] 3127 	rr	d
      001293 CB 1B            [ 8] 3128 	rr	e
      001295 3D               [ 4] 3129 	dec	a
      001296 20 F5            [12] 3130 	jr	NZ, 00510$
      001298 DD 73 FA         [19] 3131 	ld	-6 (ix), e
      00129B DD 72 FB         [19] 3132 	ld	-5 (ix), d
      00129E DD 75 FC         [19] 3133 	ld	-4 (ix), l
      0012A1 DD 74 FD         [19] 3134 	ld	-3 (ix), h
      0012A4 C5               [11] 3135 	push	bc
      0012A5 11r14r00         [10] 3136 	ld	de, #(_player + 8)
      0012A8 21 0E 00         [10] 3137 	ld	hl, #14
      0012AB 39               [11] 3138 	add	hl, sp
      0012AC 01 04 00         [10] 3139 	ld	bc, #0x0004
      0012AF ED B0            [21] 3140 	ldir
      0012B1 C1               [10] 3141 	pop	bc
                                   3142 ;pocket_platformer.c:602: if (player.vx > -FP(0.5) && player.vx < FP(0.5)) player.vx = 0;
      0012B2 ED 5Br14r00      [20] 3143 	ld	de, (#(_player + 8) + 0)
      0012B6 2Ar16r00         [16] 3144 	ld	hl, (#(_player + 8) + 2)
      0012B9 3E 80            [ 7] 3145 	ld	a, #0x80
      0012BB DD BE FA         [19] 3146 	cp	a, -6 (ix)
      0012BE 3E FF            [ 7] 3147 	ld	a, #0xff
      0012C0 DD 9E FB         [19] 3148 	sbc	a, -5 (ix)
      0012C3 3E FF            [ 7] 3149 	ld	a, #0xff
      0012C5 DD 9E FC         [19] 3150 	sbc	a, -4 (ix)
      0012C8 3E FF            [ 7] 3151 	ld	a, #0xff
      0012CA DD 9E FD         [19] 3152 	sbc	a, -3 (ix)
      0012CD E2rD2r12         [10] 3153 	jp	PO, 00512$
      0012D0 EE 80            [ 7] 3154 	xor	a, #0x80
      0012D2                       3155 00512$:
      0012D2 F2rEFr12         [10] 3156 	jp	P, 00113$
      0012D5 7B               [ 4] 3157 	ld	a, e
      0012D6 D6 80            [ 7] 3158 	sub	a, #0x80
      0012D8 7A               [ 4] 3159 	ld	a, d
      0012D9 DE 00            [ 7] 3160 	sbc	a, #0x00
      0012DB 7D               [ 4] 3161 	ld	a, l
      0012DC DE 00            [ 7] 3162 	sbc	a, #0x00
      0012DE 7C               [ 4] 3163 	ld	a, h
      0012DF 17               [ 4] 3164 	rla
      0012E0 3F               [ 4] 3165 	ccf
      0012E1 1F               [ 4] 3166 	rra
      0012E2 DE 80            [ 7] 3167 	sbc	a, #0x80
      0012E4 30 09            [12] 3168 	jr	NC, 00113$
      0012E6 21 00 00         [10] 3169 	ld	hl, #0x0000
      0012E9 22r14r00         [16] 3170 	ld	((_player + 8)), hl
      0012EC 22r16r00         [16] 3171 	ld	((_player + 8)+2), hl
      0012EF                       3172 00113$:
                                   3173 ;pocket_platformer.c:609: long px_l = (player.x >> 8) - 1;           /* 1px left of player */
      0012EF ED 5Br0Cr00      [20] 3174 	ld	de, (#_player + 0)
      0012F3 2Ar0Er00         [16] 3175 	ld	hl, (#_player + 2)
      0012F6 3E 08            [ 7] 3176 	ld	a, #0x08
      0012F8                       3177 00513$:
      0012F8 CB 2C            [ 8] 3178 	sra	h
      0012FA CB 1D            [ 8] 3179 	rr	l
      0012FC CB 1A            [ 8] 3180 	rr	d
      0012FE CB 1B            [ 8] 3181 	rr	e
      001300 3D               [ 4] 3182 	dec	a
      001301 20 F5            [12] 3183 	jr	NZ, 00513$
      001303 7B               [ 4] 3184 	ld	a, e
      001304 C6 FF            [ 7] 3185 	add	a, #0xff
      001306 DD 77 EE         [19] 3186 	ld	-18 (ix), a
      001309 7A               [ 4] 3187 	ld	a, d
      00130A CE FF            [ 7] 3188 	adc	a, #0xff
      00130C DD 77 EF         [19] 3189 	ld	-17 (ix), a
      00130F 7D               [ 4] 3190 	ld	a, l
      001310 CE FF            [ 7] 3191 	adc	a, #0xff
      001312 DD 77 F0         [19] 3192 	ld	-16 (ix), a
      001315 7C               [ 4] 3193 	ld	a, h
      001316 CE FF            [ 7] 3194 	adc	a, #0xff
      001318 DD 77 F1         [19] 3195 	ld	-15 (ix), a
                                   3196 ;pocket_platformer.c:610: long px_r = (player.x >> 8) + PLAYER_W + 1; /* 1px beyond right edge */
      00131B 7B               [ 4] 3197 	ld	a, e
      00131C C6 07            [ 7] 3198 	add	a, #0x07
      00131E DD 77 F6         [19] 3199 	ld	-10 (ix), a
      001321 7A               [ 4] 3200 	ld	a, d
      001322 CE 00            [ 7] 3201 	adc	a, #0x00
      001324 DD 77 F7         [19] 3202 	ld	-9 (ix), a
      001327 7D               [ 4] 3203 	ld	a, l
      001328 CE 00            [ 7] 3204 	adc	a, #0x00
      00132A DD 77 F8         [19] 3205 	ld	-8 (ix), a
      00132D 7C               [ 4] 3206 	ld	a, h
      00132E CE 00            [ 7] 3207 	adc	a, #0x00
      001330 DD 77 F9         [19] 3208 	ld	-7 (ix), a
                                   3209 ;pocket_platformer.c:611: unsigned char px8_l = (unsigned char)(px_l >= 0 ? px_l / TILE_SIZE : 255);
      001333 DD 7E F1         [19] 3210 	ld	a, -15 (ix)
      001336 07               [ 4] 3211 	rlca
      001337 E6 01            [ 7] 3212 	and	a,#0x01
      001339 DD 77 F2         [19] 3213 	ld	-14 (ix), a
      00133C DD CB F2 46      [20] 3214 	bit	0, -14 (ix)
      001340 20 55            [12] 3215 	jr	NZ, 00172$
      001342 DD 7E EE         [19] 3216 	ld	a, -18 (ix)
      001345 DD 77 FA         [19] 3217 	ld	-6 (ix), a
      001348 DD 7E EF         [19] 3218 	ld	a, -17 (ix)
      00134B DD 77 FB         [19] 3219 	ld	-5 (ix), a
      00134E DD 7E F0         [19] 3220 	ld	a, -16 (ix)
      001351 DD 77 FC         [19] 3221 	ld	-4 (ix), a
      001354 DD 7E F1         [19] 3222 	ld	a, -15 (ix)
      001357 DD 77 FD         [19] 3223 	ld	-3 (ix), a
      00135A DD 7E F2         [19] 3224 	ld	a, -14 (ix)
      00135D B7               [ 4] 3225 	or	a, a
      00135E 28 20            [12] 3226 	jr	Z, 00174$
      001360 DD 7E EE         [19] 3227 	ld	a, -18 (ix)
      001363 C6 07            [ 7] 3228 	add	a, #0x07
      001365 DD 77 FA         [19] 3229 	ld	-6 (ix), a
      001368 DD 7E EF         [19] 3230 	ld	a, -17 (ix)
      00136B CE 00            [ 7] 3231 	adc	a, #0x00
      00136D DD 77 FB         [19] 3232 	ld	-5 (ix), a
      001370 DD 7E F0         [19] 3233 	ld	a, -16 (ix)
      001373 CE 00            [ 7] 3234 	adc	a, #0x00
      001375 DD 77 FC         [19] 3235 	ld	-4 (ix), a
      001378 DD 7E F1         [19] 3236 	ld	a, -15 (ix)
      00137B CE 00            [ 7] 3237 	adc	a, #0x00
      00137D DD 77 FD         [19] 3238 	ld	-3 (ix), a
      001380                       3239 00174$:
      001380 3E 03            [ 7] 3240 	ld	a, #0x03
      001382                       3241 00515$:
      001382 DD CB FD 2E      [23] 3242 	sra	-3 (ix)
      001386 DD CB FC 1E      [23] 3243 	rr	-4 (ix)
      00138A DD CB FB 1E      [23] 3244 	rr	-5 (ix)
      00138E DD CB FA 1E      [23] 3245 	rr	-6 (ix)
      001392 3D               [ 4] 3246 	dec	a
      001393 20 ED            [12] 3247 	jr	NZ, 00515$
      001395 18 0E            [12] 3248 	jr	00173$
      001397                       3249 00172$:
      001397 DD 36 FA FF      [19] 3250 	ld	-6 (ix), #0xff
      00139B AF               [ 4] 3251 	xor	a, a
      00139C DD 77 FB         [19] 3252 	ld	-5 (ix), a
      00139F DD 77 FC         [19] 3253 	ld	-4 (ix), a
      0013A2 DD 77 FD         [19] 3254 	ld	-3 (ix), a
      0013A5                       3255 00173$:
      0013A5 DD 7E FA         [19] 3256 	ld	a, -6 (ix)
      0013A8 DD 77 F3         [19] 3257 	ld	-13 (ix), a
                                   3258 ;pocket_platformer.c:612: unsigned char px8_r = (unsigned char)(px_r / TILE_SIZE);
      0013AB DD 5E F6         [19] 3259 	ld	e, -10 (ix)
      0013AE DD 56 F7         [19] 3260 	ld	d, -9 (ix)
                                   3261 ;	spillPairReg hl
                                   3262 ;	spillPairReg hl
                                   3263 ;	spillPairReg hl
                                   3264 ;	spillPairReg hl
      0013B1 DD CB F9 7E      [20] 3265 	bit	7, -7 (ix)
      0013B5 28 0C            [12] 3266 	jr	Z, 00175$
      0013B7 DD 7E F6         [19] 3267 	ld	a, -10 (ix)
      0013BA C6 07            [ 7] 3268 	add	a, #0x07
      0013BC 5F               [ 4] 3269 	ld	e, a
      0013BD DD 7E F7         [19] 3270 	ld	a, -9 (ix)
      0013C0 CE 00            [ 7] 3271 	adc	a, #0x00
      0013C2 57               [ 4] 3272 	ld	d, a
                                   3273 ;	spillPairReg hl
                                   3274 ;	spillPairReg hl
                                   3275 ;	spillPairReg hl
                                   3276 ;	spillPairReg hl
      0013C3                       3277 00175$:
      0013C3 CB 3A            [ 8] 3278 	srl	d
      0013C5 CB 1B            [ 8] 3279 	rr	e
      0013C7 CB 3A            [ 8] 3280 	srl	d
      0013C9 CB 1B            [ 8] 3281 	rr	e
      0013CB CB 3A            [ 8] 3282 	srl	d
      0013CD CB 1B            [ 8] 3283 	rr	e
      0013CF DD 73 F4         [19] 3284 	ld	-12 (ix), e
                                   3285 ;pocket_platformer.c:613: unsigned char py8   = (unsigned char)((player.y >> 8) / TILE_SIZE);
      0013D2 ED 5Br10r00      [20] 3286 	ld	de, (#_player + 4)
      0013D6 2Ar12r00         [16] 3287 	ld	hl, (#_player + 6)
      0013D9 3E 08            [ 7] 3288 	ld	a, #0x08
      0013DB                       3289 00517$:
      0013DB CB 2C            [ 8] 3290 	sra	h
      0013DD CB 1D            [ 8] 3291 	rr	l
      0013DF CB 1A            [ 8] 3292 	rr	d
      0013E1 CB 1B            [ 8] 3293 	rr	e
      0013E3 3D               [ 4] 3294 	dec	a
      0013E4 20 F5            [12] 3295 	jr	NZ, 00517$
      0013E6 DD 73 F5         [19] 3296 	ld	-11 (ix), e
      0013E9 DD 72 F6         [19] 3297 	ld	-10 (ix), d
      0013EC DD 75 F7         [19] 3298 	ld	-9 (ix), l
      0013EF DD 74 F8         [19] 3299 	ld	-8 (ix), h
      0013F2 DD 5E F5         [19] 3300 	ld	e, -11 (ix)
      0013F5 DD 56 F6         [19] 3301 	ld	d, -10 (ix)
                                   3302 ;	spillPairReg hl
                                   3303 ;	spillPairReg hl
                                   3304 ;	spillPairReg hl
                                   3305 ;	spillPairReg hl
      0013F8 DD 7E F5         [19] 3306 	ld	a, -11 (ix)
      0013FB C6 07            [ 7] 3307 	add	a, #0x07
      0013FD DD 77 F9         [19] 3308 	ld	-7 (ix), a
      001400 DD 7E F6         [19] 3309 	ld	a, -10 (ix)
      001403 CE 00            [ 7] 3310 	adc	a, #0x00
      001405 DD 77 FA         [19] 3311 	ld	-6 (ix), a
      001408 DD 7E F7         [19] 3312 	ld	a, -9 (ix)
      00140B CE 00            [ 7] 3313 	adc	a, #0x00
      00140D DD 77 FB         [19] 3314 	ld	-5 (ix), a
      001410 DD 7E F8         [19] 3315 	ld	a, -8 (ix)
      001413 CE 00            [ 7] 3316 	adc	a, #0x00
      001415 DD 77 FC         [19] 3317 	ld	-4 (ix), a
      001418 DD CB F8 7E      [20] 3318 	bit	7, -8 (ix)
      00141C 28 06            [12] 3319 	jr	Z, 00176$
      00141E DD 5E F9         [19] 3320 	ld	e, -7 (ix)
      001421 DD 56 FA         [19] 3321 	ld	d, -6 (ix)
                                   3322 ;	spillPairReg hl
                                   3323 ;	spillPairReg hl
                                   3324 ;	spillPairReg hl
                                   3325 ;	spillPairReg hl
      001424                       3326 00176$:
      001424 CB 3A            [ 8] 3327 	srl	d
      001426 CB 1B            [ 8] 3328 	rr	e
      001428 CB 3A            [ 8] 3329 	srl	d
      00142A CB 1B            [ 8] 3330 	rr	e
      00142C CB 3A            [ 8] 3331 	srl	d
      00142E CB 1B            [ 8] 3332 	rr	e
      001430 DD 73 FD         [19] 3333 	ld	-3 (ix), e
                                   3334 ;pocket_platformer.c:614: unsigned char pb8   = (unsigned char)(((player.y >> 8) + PLAYER_H - 1) / TILE_SIZE);
      001433 DD 5E F9         [19] 3335 	ld	e, -7 (ix)
      001436 DD 56 FA         [19] 3336 	ld	d, -6 (ix)
                                   3337 ;	spillPairReg hl
                                   3338 ;	spillPairReg hl
                                   3339 ;	spillPairReg hl
                                   3340 ;	spillPairReg hl
      001439 DD CB FC 7E      [20] 3341 	bit	7, -4 (ix)
      00143D 28 0C            [12] 3342 	jr	Z, 00177$
      00143F DD 7E F5         [19] 3343 	ld	a, -11 (ix)
      001442 C6 0E            [ 7] 3344 	add	a, #0x0e
      001444 5F               [ 4] 3345 	ld	e, a
      001445 DD 7E F6         [19] 3346 	ld	a, -10 (ix)
      001448 CE 00            [ 7] 3347 	adc	a, #0x00
      00144A 57               [ 4] 3348 	ld	d, a
                                   3349 ;	spillPairReg hl
                                   3350 ;	spillPairReg hl
                                   3351 ;	spillPairReg hl
                                   3352 ;	spillPairReg hl
      00144B                       3353 00177$:
      00144B CB 3A            [ 8] 3354 	srl	d
      00144D CB 1B            [ 8] 3355 	rr	e
      00144F CB 3A            [ 8] 3356 	srl	d
      001451 CB 1B            [ 8] 3357 	rr	e
      001453 CB 3A            [ 8] 3358 	srl	d
      001455 CB 1B            [ 8] 3359 	rr	e
      001457 DD 73 FC         [19] 3360 	ld	-4 (ix), e
                                   3361 ;pocket_platformer.c:617: unsigned char wall_left  = (px_l >= 0) &&
      00145A DD CB F2 46      [20] 3362 	bit	0, -14 (ix)
      00145E C2rF7r14         [10] 3363 	jp	NZ, 00178$
      001461 C5               [11] 3364 	push	bc
      001462 DD 6E FD         [19] 3365 	ld	l, -3 (ix)
                                   3366 ;	spillPairReg hl
                                   3367 ;	spillPairReg hl
      001465 DD 7E F3         [19] 3368 	ld	a, -13 (ix)
      001468 CDr1Er01         [17] 3369 	call	_get_tile
      00146B C1               [10] 3370 	pop	bc
      00146C B7               [ 4] 3371 	or	a, a
      00146D 28 3D            [12] 3372 	jr	Z, 00186$
      00146F 2Ar00r00         [16] 3373 	ld	hl, (_res_header)
      001472 11 06 00         [10] 3374 	ld	de, #0x0006
      001475 19               [11] 3375 	add	hl, de
      001476 7E               [ 7] 3376 	ld	a, (hl)
      001477 B7               [ 4] 3377 	or	a, a
      001478 28 16            [12] 3378 	jr	Z, 00191$
      00147A C5               [11] 3379 	push	bc
      00147B DD 6E FD         [19] 3380 	ld	l, -3 (ix)
                                   3381 ;	spillPairReg hl
                                   3382 ;	spillPairReg hl
      00147E DD 7E F3         [19] 3383 	ld	a, -13 (ix)
      001481 CDr1Er01         [17] 3384 	call	_get_tile
      001484 C1               [10] 3385 	pop	bc
      001485 2Ar00r00         [16] 3386 	ld	hl, (_res_header)
      001488 11 06 00         [10] 3387 	ld	de, #0x0006
      00148B 19               [11] 3388 	add	hl, de
      00148C 5E               [ 7] 3389 	ld	e, (hl)
      00148D 93               [ 4] 3390 	sub	a, e
      00148E 28 1C            [12] 3391 	jr	Z, 00186$
      001490                       3392 00191$:
      001490 C5               [11] 3393 	push	bc
      001491 DD 6E FD         [19] 3394 	ld	l, -3 (ix)
                                   3395 ;	spillPairReg hl
                                   3396 ;	spillPairReg hl
      001494 DD 7E F3         [19] 3397 	ld	a, -13 (ix)
      001497 CDr8Br29         [17] 3398 	call	_rb_is_passable
      00149A C1               [10] 3399 	pop	bc
      00149B B7               [ 4] 3400 	or	a, a
      00149C 20 0E            [12] 3401 	jr	NZ, 00186$
      00149E C5               [11] 3402 	push	bc
      00149F DD 6E FD         [19] 3403 	ld	l, -3 (ix)
                                   3404 ;	spillPairReg hl
                                   3405 ;	spillPairReg hl
      0014A2 DD 7E F3         [19] 3406 	ld	a, -13 (ix)
      0014A5 CDrEEr26         [17] 3407 	call	_vp_is_passable
      0014A8 C1               [10] 3408 	pop	bc
      0014A9 B7               [ 4] 3409 	or	a, a
      0014AA 28 4E            [12] 3410 	jr	Z, 00179$
      0014AC                       3411 00186$:
      0014AC C5               [11] 3412 	push	bc
      0014AD DD 6E FC         [19] 3413 	ld	l, -4 (ix)
                                   3414 ;	spillPairReg hl
                                   3415 ;	spillPairReg hl
      0014B0 DD 7E F3         [19] 3416 	ld	a, -13 (ix)
      0014B3 CDr1Er01         [17] 3417 	call	_get_tile
      0014B6 C1               [10] 3418 	pop	bc
      0014B7 B7               [ 4] 3419 	or	a, a
      0014B8 28 3D            [12] 3420 	jr	Z, 00178$
      0014BA 2Ar00r00         [16] 3421 	ld	hl, (_res_header)
      0014BD 11 06 00         [10] 3422 	ld	de, #0x0006
      0014C0 19               [11] 3423 	add	hl, de
      0014C1 7E               [ 7] 3424 	ld	a, (hl)
      0014C2 B7               [ 4] 3425 	or	a, a
      0014C3 28 16            [12] 3426 	jr	Z, 00203$
      0014C5 C5               [11] 3427 	push	bc
      0014C6 DD 6E FC         [19] 3428 	ld	l, -4 (ix)
                                   3429 ;	spillPairReg hl
                                   3430 ;	spillPairReg hl
      0014C9 DD 7E F3         [19] 3431 	ld	a, -13 (ix)
      0014CC CDr1Er01         [17] 3432 	call	_get_tile
      0014CF C1               [10] 3433 	pop	bc
      0014D0 2Ar00r00         [16] 3434 	ld	hl, (_res_header)
      0014D3 11 06 00         [10] 3435 	ld	de, #0x0006
      0014D6 19               [11] 3436 	add	hl, de
      0014D7 5E               [ 7] 3437 	ld	e, (hl)
      0014D8 93               [ 4] 3438 	sub	a, e
      0014D9 28 1C            [12] 3439 	jr	Z, 00178$
      0014DB                       3440 00203$:
      0014DB C5               [11] 3441 	push	bc
      0014DC DD 6E FC         [19] 3442 	ld	l, -4 (ix)
                                   3443 ;	spillPairReg hl
                                   3444 ;	spillPairReg hl
      0014DF DD 7E F3         [19] 3445 	ld	a, -13 (ix)
      0014E2 CDr8Br29         [17] 3446 	call	_rb_is_passable
      0014E5 C1               [10] 3447 	pop	bc
      0014E6 B7               [ 4] 3448 	or	a, a
      0014E7 20 0E            [12] 3449 	jr	NZ, 00178$
      0014E9 C5               [11] 3450 	push	bc
      0014EA DD 6E FC         [19] 3451 	ld	l, -4 (ix)
                                   3452 ;	spillPairReg hl
                                   3453 ;	spillPairReg hl
      0014ED DD 7E F3         [19] 3454 	ld	a, -13 (ix)
      0014F0 CDrEEr26         [17] 3455 	call	_vp_is_passable
      0014F3 C1               [10] 3456 	pop	bc
      0014F4 B7               [ 4] 3457 	or	a, a
      0014F5 28 03            [12] 3458 	jr	Z, 00179$
      0014F7                       3459 00178$:
      0014F7 AF               [ 4] 3460 	xor	a, a
      0014F8 18 02            [12] 3461 	jr	00180$
      0014FA                       3462 00179$:
      0014FA 3E 01            [ 7] 3463 	ld	a, #0x01
      0014FC                       3464 00180$:
      0014FC DD 77 FB         [19] 3465 	ld	-5 (ix), a
                                   3466 ;pocket_platformer.c:619: unsigned char wall_right =
      0014FF C5               [11] 3467 	push	bc
      001500 DD 6E FD         [19] 3468 	ld	l, -3 (ix)
                                   3469 ;	spillPairReg hl
                                   3470 ;	spillPairReg hl
      001503 DD 7E F4         [19] 3471 	ld	a, -12 (ix)
      001506 CDr1Er01         [17] 3472 	call	_get_tile
      001509 C1               [10] 3473 	pop	bc
      00150A B7               [ 4] 3474 	or	a, a
      00150B 28 3D            [12] 3475 	jr	Z, 00213$
      00150D 2Ar00r00         [16] 3476 	ld	hl, (_res_header)
      001510 11 06 00         [10] 3477 	ld	de, #0x0006
      001513 19               [11] 3478 	add	hl, de
      001514 7E               [ 7] 3479 	ld	a, (hl)
      001515 B7               [ 4] 3480 	or	a, a
      001516 28 16            [12] 3481 	jr	Z, 00218$
      001518 C5               [11] 3482 	push	bc
      001519 DD 6E FD         [19] 3483 	ld	l, -3 (ix)
                                   3484 ;	spillPairReg hl
                                   3485 ;	spillPairReg hl
      00151C DD 7E F4         [19] 3486 	ld	a, -12 (ix)
      00151F CDr1Er01         [17] 3487 	call	_get_tile
      001522 C1               [10] 3488 	pop	bc
      001523 2Ar00r00         [16] 3489 	ld	hl, (_res_header)
      001526 11 06 00         [10] 3490 	ld	de, #0x0006
      001529 19               [11] 3491 	add	hl, de
      00152A 5E               [ 7] 3492 	ld	e, (hl)
      00152B 93               [ 4] 3493 	sub	a, e
      00152C 28 1C            [12] 3494 	jr	Z, 00213$
      00152E                       3495 00218$:
      00152E C5               [11] 3496 	push	bc
      00152F DD 6E FD         [19] 3497 	ld	l, -3 (ix)
                                   3498 ;	spillPairReg hl
                                   3499 ;	spillPairReg hl
      001532 DD 7E F4         [19] 3500 	ld	a, -12 (ix)
      001535 CDr8Br29         [17] 3501 	call	_rb_is_passable
      001538 C1               [10] 3502 	pop	bc
      001539 B7               [ 4] 3503 	or	a, a
      00153A 20 0E            [12] 3504 	jr	NZ, 00213$
      00153C C5               [11] 3505 	push	bc
      00153D DD 6E FD         [19] 3506 	ld	l, -3 (ix)
                                   3507 ;	spillPairReg hl
                                   3508 ;	spillPairReg hl
      001540 DD 7E F4         [19] 3509 	ld	a, -12 (ix)
      001543 CDrEEr26         [17] 3510 	call	_vp_is_passable
      001546 C1               [10] 3511 	pop	bc
      001547 B7               [ 4] 3512 	or	a, a
      001548 28 4E            [12] 3513 	jr	Z, 00209$
      00154A                       3514 00213$:
      00154A C5               [11] 3515 	push	bc
      00154B DD 6E FC         [19] 3516 	ld	l, -4 (ix)
                                   3517 ;	spillPairReg hl
                                   3518 ;	spillPairReg hl
      00154E DD 7E F4         [19] 3519 	ld	a, -12 (ix)
      001551 CDr1Er01         [17] 3520 	call	_get_tile
      001554 C1               [10] 3521 	pop	bc
      001555 B7               [ 4] 3522 	or	a, a
      001556 28 3D            [12] 3523 	jr	Z, 00208$
      001558 2Ar00r00         [16] 3524 	ld	hl, (_res_header)
      00155B 11 06 00         [10] 3525 	ld	de, #0x0006
      00155E 19               [11] 3526 	add	hl, de
      00155F 7E               [ 7] 3527 	ld	a, (hl)
      001560 B7               [ 4] 3528 	or	a, a
      001561 28 16            [12] 3529 	jr	Z, 00230$
      001563 C5               [11] 3530 	push	bc
      001564 DD 6E FC         [19] 3531 	ld	l, -4 (ix)
                                   3532 ;	spillPairReg hl
                                   3533 ;	spillPairReg hl
      001567 DD 7E F4         [19] 3534 	ld	a, -12 (ix)
      00156A CDr1Er01         [17] 3535 	call	_get_tile
      00156D C1               [10] 3536 	pop	bc
      00156E 2Ar00r00         [16] 3537 	ld	hl, (_res_header)
      001571 11 06 00         [10] 3538 	ld	de, #0x0006
      001574 19               [11] 3539 	add	hl, de
      001575 5E               [ 7] 3540 	ld	e, (hl)
      001576 93               [ 4] 3541 	sub	a, e
      001577 28 1C            [12] 3542 	jr	Z, 00208$
      001579                       3543 00230$:
      001579 C5               [11] 3544 	push	bc
      00157A DD 6E FC         [19] 3545 	ld	l, -4 (ix)
                                   3546 ;	spillPairReg hl
                                   3547 ;	spillPairReg hl
      00157D DD 7E F4         [19] 3548 	ld	a, -12 (ix)
      001580 CDr8Br29         [17] 3549 	call	_rb_is_passable
      001583 C1               [10] 3550 	pop	bc
      001584 B7               [ 4] 3551 	or	a, a
      001585 20 0E            [12] 3552 	jr	NZ, 00208$
      001587 C5               [11] 3553 	push	bc
      001588 DD 6E FC         [19] 3554 	ld	l, -4 (ix)
                                   3555 ;	spillPairReg hl
                                   3556 ;	spillPairReg hl
      00158B DD 7E F4         [19] 3557 	ld	a, -12 (ix)
      00158E CDrEEr26         [17] 3558 	call	_vp_is_passable
      001591 C1               [10] 3559 	pop	bc
      001592 B7               [ 4] 3560 	or	a, a
      001593 28 03            [12] 3561 	jr	Z, 00209$
      001595                       3562 00208$:
      001595 AF               [ 4] 3563 	xor	a, a
      001596 18 02            [12] 3564 	jr	00210$
      001598                       3565 00209$:
      001598 3E 01            [ 7] 3566 	ld	a, #0x01
      00159A                       3567 00210$:
      00159A DD 77 FA         [19] 3568 	ld	-6 (ix), a
                                   3569 ;pocket_platformer.c:626: player.jumping = 1;
                                   3570 ;pocket_platformer.c:627: player.wall_jumping = 0;
                                   3571 ;pocket_platformer.c:628: player.jump_frames = 0;
                                   3572 ;pocket_platformer.c:629: player.falling = 0;
                                   3573 ;pocket_platformer.c:642: player.wall_jump_dir = wall_left ? 1 : 255;
                                   3574 ;pocket_platformer.c:643: player.wall_push_frames = 0;
                                   3575 ;pocket_platformer.c:624: if (joy_pressed & PORT_A_KEY_1) {
      00159D CB 61            [ 8] 3576 	bit	4, c
      00159F CAr76r16         [10] 3577 	jp	Z,00133$
                                   3578 ;pocket_platformer.c:625: if (player.on_ground) {
      0015A2 21r1Cr00         [10] 3579 	ld	hl, #(_player + 16)
      0015A5 4E               [ 7] 3580 	ld	c, (hl)
      0015A6 79               [ 4] 3581 	ld	a, c
      0015A7 B7               [ 4] 3582 	or	a, a
      0015A8 28 26            [12] 3583 	jr	Z, 00130$
                                   3584 ;pocket_platformer.c:626: player.jumping = 1;
      0015AA 21r1Er00         [10] 3585 	ld	hl, #(_player + 18)
      0015AD 36 01            [10] 3586 	ld	(hl), #0x01
                                   3587 ;pocket_platformer.c:627: player.wall_jumping = 0;
      0015AF 21r1Fr00         [10] 3588 	ld	hl, #(_player + 19)
      0015B2 36 00            [10] 3589 	ld	(hl), #0x00
                                   3590 ;pocket_platformer.c:628: player.jump_frames = 0;
      0015B4 21r22r00         [10] 3591 	ld	hl, #(_player + 22)
      0015B7 36 00            [10] 3592 	ld	(hl), #0x00
                                   3593 ;pocket_platformer.c:629: player.falling = 0;
      0015B9 21r1Dr00         [10] 3594 	ld	hl, #(_player + 17)
      0015BC 36 00            [10] 3595 	ld	(hl), #0x00
                                   3596 ;pocket_platformer.c:630: player.on_ground = 0;
      0015BE 21r1Cr00         [10] 3597 	ld	hl, #(_player + 16)
      0015C1 36 00            [10] 3598 	ld	(hl), #0x00
                                   3599 ;pocket_platformer.c:631: if (vp_block_count) vp_toggle();
      0015C3 3Ar42r01         [13] 3600 	ld	a, (_vp_block_count+0)
      0015C6 B7               [ 4] 3601 	or	a, a
      0015C7 CAr76r16         [10] 3602 	jp	Z, 00133$
      0015CA CDr40r27         [17] 3603 	call	_vp_toggle
      0015CD C3r76r16         [10] 3604 	jp	00133$
      0015D0                       3605 00130$:
                                   3606 ;pocket_platformer.c:587: long max_spd = (long)res_physics->max_speed;
      0015D0 2Ar02r00         [16] 3607 	ld	hl, (_res_physics)
                                   3608 ;pocket_platformer.c:632: } else if (res_physics->has_wall_jump && !player.on_ground &&
      0015D3 DD 75 FC         [19] 3609 	ld	-4 (ix), l
      0015D6 DD 74 FD         [19] 3610 	ld	-3 (ix), h
      0015D9 11 10 00         [10] 3611 	ld	de, #16
      0015DC 19               [11] 3612 	add	hl, de
                                   3613 ;pocket_platformer.c:639: player.double_jump_used = 0;
                                   3614 ;pocket_platformer.c:632: } else if (res_physics->has_wall_jump && !player.on_ground &&
      0015DD 7E               [ 7] 3615 	ld	a, (hl)
      0015DE B7               [ 4] 3616 	or	a, a
      0015DF 28 5E            [12] 3617 	jr	Z, 00124$
      0015E1 79               [ 4] 3618 	ld	a, c
      0015E2 B7               [ 4] 3619 	or	a, a
      0015E3 20 5A            [12] 3620 	jr	NZ, 00124$
                                   3621 ;pocket_platformer.c:633: (wall_left || wall_right)) {
      0015E5 DD 7E FB         [19] 3622 	ld	a, -5 (ix)
      0015E8 B7               [ 4] 3623 	or	a, a
      0015E9 20 06            [12] 3624 	jr	NZ, 00123$
      0015EB DD 7E FA         [19] 3625 	ld	a, -6 (ix)
      0015EE B7               [ 4] 3626 	or	a, a
      0015EF 28 4E            [12] 3627 	jr	Z, 00124$
      0015F1                       3628 00123$:
                                   3629 ;pocket_platformer.c:635: player.jumping = 0;
      0015F1 21r1Er00         [10] 3630 	ld	hl, #(_player + 18)
      0015F4 36 00            [10] 3631 	ld	(hl), #0x00
                                   3632 ;pocket_platformer.c:636: player.wall_jumping = 1;
      0015F6 21r1Fr00         [10] 3633 	ld	hl, #(_player + 19)
      0015F9 36 01            [10] 3634 	ld	(hl), #0x01
                                   3635 ;pocket_platformer.c:637: player.jump_frames = 0;
      0015FB 21r22r00         [10] 3636 	ld	hl, #(_player + 22)
      0015FE 36 00            [10] 3637 	ld	(hl), #0x00
                                   3638 ;pocket_platformer.c:638: player.falling = 0;
      001600 21r1Dr00         [10] 3639 	ld	hl, #(_player + 17)
      001603 36 00            [10] 3640 	ld	(hl), #0x00
                                   3641 ;pocket_platformer.c:639: player.double_jump_used = 0;
      001605 21r24r00         [10] 3642 	ld	hl, #(_player + 24)
      001608 36 00            [10] 3643 	ld	(hl), #0x00
                                   3644 ;pocket_platformer.c:642: player.wall_jump_dir = wall_left ? 1 : 255;
      00160A DD 7E FB         [19] 3645 	ld	a, -5 (ix)
      00160D B7               [ 4] 3646 	or	a, a
      00160E 28 0A            [12] 3647 	jr	Z, 00235$
      001610 DD 36 FC 01      [19] 3648 	ld	-4 (ix), #0x01
      001614 DD 36 FD 00      [19] 3649 	ld	-3 (ix), #0
      001618 18 08            [12] 3650 	jr	00236$
      00161A                       3651 00235$:
      00161A DD 36 FC FF      [19] 3652 	ld	-4 (ix), #0xff
      00161E DD 36 FD 00      [19] 3653 	ld	-3 (ix), #0
      001622                       3654 00236$:
      001622 DD 7E FC         [19] 3655 	ld	a, -4 (ix)
      001625 DD 77 FD         [19] 3656 	ld	-3 (ix), a
      001628 21r20r00         [10] 3657 	ld	hl, #(_player + 20)
      00162B DD 7E FD         [19] 3658 	ld	a, -3 (ix)
      00162E 77               [ 7] 3659 	ld	(hl), a
                                   3660 ;pocket_platformer.c:643: player.wall_push_frames = 0;
      00162F 21r21r00         [10] 3661 	ld	hl, #(_player + 21)
      001632 36 00            [10] 3662 	ld	(hl), #0x00
                                   3663 ;pocket_platformer.c:644: if (vp_block_count) vp_toggle();
      001634 3Ar42r01         [13] 3664 	ld	a, (_vp_block_count+0)
      001637 B7               [ 4] 3665 	or	a, a
      001638 28 3C            [12] 3666 	jr	Z, 00133$
      00163A CDr40r27         [17] 3667 	call	_vp_toggle
      00163D 18 37            [12] 3668 	jr	00133$
      00163F                       3669 00124$:
                                   3670 ;pocket_platformer.c:645: } else if (res_physics->has_double_jump && !player.double_jump_used) {
      00163F DD 6E FC         [19] 3671 	ld	l, -4 (ix)
      001642 DD 66 FD         [19] 3672 	ld	h, -3 (ix)
      001645 11 0F 00         [10] 3673 	ld	de, #0x000f
      001648 19               [11] 3674 	add	hl, de
      001649 7E               [ 7] 3675 	ld	a, (hl)
      00164A DD 77 FD         [19] 3676 	ld	-3 (ix), a
      00164D B7               [ 4] 3677 	or	a, a
      00164E 28 26            [12] 3678 	jr	Z, 00133$
      001650 3Ar24r00         [13] 3679 	ld	a, (#(_player + 24) + 0)
      001653 DD 77 FD         [19] 3680 	ld	-3 (ix), a
      001656 B7               [ 4] 3681 	or	a, a
      001657 20 1D            [12] 3682 	jr	NZ, 00133$
                                   3683 ;pocket_platformer.c:646: player.jumping = 1;
      001659 21r1Er00         [10] 3684 	ld	hl, #(_player + 18)
      00165C 36 01            [10] 3685 	ld	(hl), #0x01
                                   3686 ;pocket_platformer.c:647: player.wall_jumping = 0;
      00165E 21r1Fr00         [10] 3687 	ld	hl, #(_player + 19)
      001661 36 00            [10] 3688 	ld	(hl), #0x00
                                   3689 ;pocket_platformer.c:648: player.jump_frames = 0;
      001663 21r22r00         [10] 3690 	ld	hl, #(_player + 22)
      001666 36 00            [10] 3691 	ld	(hl), #0x00
                                   3692 ;pocket_platformer.c:649: player.double_jump_used = 1;
      001668 21r24r00         [10] 3693 	ld	hl, #(_player + 24)
      00166B 36 01            [10] 3694 	ld	(hl), #0x01
                                   3695 ;pocket_platformer.c:650: if (vp_block_count) vp_toggle();
      00166D 3Ar42r01         [13] 3696 	ld	a, (_vp_block_count+0)
      001670 B7               [ 4] 3697 	or	a, a
      001671 28 03            [12] 3698 	jr	Z, 00133$
      001673 CDr40r27         [17] 3699 	call	_vp_toggle
      001676                       3700 00133$:
                                   3701 ;pocket_platformer.c:657: if (player.jumping) {
      001676 21r1Er00         [10] 3702 	ld	hl, #(_player + 18)
      001679 4E               [ 7] 3703 	ld	c, (hl)
                                   3704 ;pocket_platformer.c:658: if (joy & PORT_A_KEY_1 || player.forced_jump_speed > 0) {
      00167A DD 7E FE         [19] 3705 	ld	a, -2 (ix)
      00167D E6 10            [ 7] 3706 	and	a, #0x10
      00167F DD 77 FA         [19] 3707 	ld	-6 (ix), a
      001682 DD 36 FB 00      [19] 3708 	ld	-5 (ix), #0x00
                                   3709 ;pocket_platformer.c:662: player.vy = -(remaining * js);
                                   3710 ;pocket_platformer.c:657: if (player.jumping) {
      001686 79               [ 4] 3711 	ld	a, c
      001687 B7               [ 4] 3712 	or	a, a
      001688 CAr8Fr17         [10] 3713 	jp	Z, 00143$
                                   3714 ;pocket_platformer.c:658: if (joy & PORT_A_KEY_1 || player.forced_jump_speed > 0) {
      00168B 11r28r00         [10] 3715 	ld	de, #(_player + 28)
      00168E 21 08 00         [10] 3716 	ld	hl, #8
      001691 39               [11] 3717 	add	hl, sp
      001692 EB               [ 4] 3718 	ex	de, hl
      001693 01 04 00         [10] 3719 	ld	bc, #0x0004
      001696 ED B0            [21] 3720 	ldir
      001698 AF               [ 4] 3721 	xor	a, a
      001699 DD BE F6         [19] 3722 	cp	a, -10 (ix)
      00169C DD 9E F7         [19] 3723 	sbc	a, -9 (ix)
      00169F 3E 00            [ 7] 3724 	ld	a, #0x00
      0016A1 DD 9E F8         [19] 3725 	sbc	a, -8 (ix)
      0016A4 3E 00            [ 7] 3726 	ld	a, #0x00
      0016A6 DD 9E F9         [19] 3727 	sbc	a, -7 (ix)
      0016A9 E2rAEr16         [10] 3728 	jp	PO, 00524$
      0016AC EE 80            [ 7] 3729 	xor	a, #0x80
      0016AE                       3730 00524$:
      0016AE 07               [ 4] 3731 	rlca
      0016AF E6 01            [ 7] 3732 	and	a,#0x01
      0016B1 DD 77 FD         [19] 3733 	ld	-3 (ix), a
      0016B4 DD 7E FB         [19] 3734 	ld	a, -5 (ix)
      0016B7 DD B6 FA         [19] 3735 	or	a, -6 (ix)
      0016BA 20 07            [12] 3736 	jr	NZ, 00138$
      0016BC DD 7E FD         [19] 3737 	ld	a, -3 (ix)
      0016BF B7               [ 4] 3738 	or	a, a
      0016C0 CAr6Cr17         [10] 3739 	jp	Z, 00139$
      0016C3                       3740 00138$:
                                   3741 ;pocket_platformer.c:659: long js = player.forced_jump_speed > 0 ? player.forced_jump_speed : (long)res_physics->jump_speed;
      0016C3 DD 7E FD         [19] 3742 	ld	a, -3 (ix)
      0016C6 B7               [ 4] 3743 	or	a, a
      0016C7 20 2A            [12] 3744 	jr	NZ, 00238$
      0016C9 2Ar02r00         [16] 3745 	ld	hl, (_res_physics)
      0016CC DD 75 FC         [19] 3746 	ld	-4 (ix), l
      0016CF DD 74 FD         [19] 3747 	ld	-3 (ix), h
      0016D2 11 0A 00         [10] 3748 	ld	de, #0x000a
      0016D5 19               [11] 3749 	add	hl, de
      0016D6 7E               [ 7] 3750 	ld	a, (hl)
      0016D7 DD 77 FC         [19] 3751 	ld	-4 (ix), a
      0016DA 23               [ 6] 3752 	inc	hl
      0016DB 7E               [ 7] 3753 	ld	a, (hl)
      0016DC DD 77 FD         [19] 3754 	ld	-3 (ix), a
      0016DF DD 7E FC         [19] 3755 	ld	a, -4 (ix)
      0016E2 DD 77 F6         [19] 3756 	ld	-10 (ix), a
      0016E5 DD 7E FD         [19] 3757 	ld	a, -3 (ix)
      0016E8 DD 77 F7         [19] 3758 	ld	-9 (ix), a
      0016EB 07               [ 4] 3759 	rlca
      0016EC 9F               [ 4] 3760 	sbc	a, a
      0016ED DD 77 F8         [19] 3761 	ld	-8 (ix), a
      0016F0 DD 77 F9         [19] 3762 	ld	-7 (ix), a
      0016F3                       3763 00238$:
      0016F3 DD 4E F6         [19] 3764 	ld	c, -10 (ix)
      0016F6 DD 46 F7         [19] 3765 	ld	b, -9 (ix)
      0016F9 FD E5            [15] 3766 	push	iy
      0016FB E3               [19] 3767 	ex	(sp), hl
      0016FC DD 6E F8         [19] 3768 	ld	l, -8 (ix)
                                   3769 ;	spillPairReg hl
                                   3770 ;	spillPairReg hl
      0016FF E3               [19] 3771 	ex	(sp), hl
      001700 E3               [19] 3772 	ex	(sp), hl
      001701 DD 66 F9         [19] 3773 	ld	h, -7 (ix)
                                   3774 ;	spillPairReg hl
                                   3775 ;	spillPairReg hl
      001704 E3               [19] 3776 	ex	(sp), hl
      001705 FD E1            [14] 3777 	pop	iy
                                   3778 ;pocket_platformer.c:660: player.jump_frames++;
      001707 3Ar22r00         [13] 3779 	ld	a, (#(_player + 22) + 0)
      00170A 3C               [ 4] 3780 	inc	a
      00170B DD 77 FD         [19] 3781 	ld	-3 (ix), a
      00170E 21r22r00         [10] 3782 	ld	hl, #(_player + 22)
      001711 DD 7E FD         [19] 3783 	ld	a, -3 (ix)
      001714 77               [ 7] 3784 	ld	(hl), a
                                   3785 ;pocket_platformer.c:661: long remaining = (long)(res_physics->max_jump_frames - player.jump_frames);
      001715 2Ar02r00         [16] 3786 	ld	hl, (_res_physics)
      001718 11 0C 00         [10] 3787 	ld	de, #0x000c
      00171B 19               [11] 3788 	add	hl, de
      00171C 6E               [ 7] 3789 	ld	l, (hl)
                                   3790 ;	spillPairReg hl
      00171D 26 00            [ 7] 3791 	ld	h, #0x00
                                   3792 ;	spillPairReg hl
                                   3793 ;	spillPairReg hl
      00171F DD 5E FD         [19] 3794 	ld	e, -3 (ix)
      001722 16 00            [ 7] 3795 	ld	d, #0x00
      001724 BF               [ 4] 3796 	cp	a, a
      001725 ED 52            [15] 3797 	sbc	hl, de
      001727 EB               [ 4] 3798 	ex	de, hl
      001728 7A               [ 4] 3799 	ld	a, d
      001729 07               [ 4] 3800 	rlca
      00172A ED 62            [15] 3801 	sbc	hl, hl
                                   3802 ;pocket_platformer.c:662: player.vy = -(remaining * js);
      00172C FD E5            [15] 3803 	push	iy
      00172E C5               [11] 3804 	push	bc
      00172F CDr00r00         [17] 3805 	call	__mullong
      001732 F1               [10] 3806 	pop	af
      001733 F1               [10] 3807 	pop	af
      001734 AF               [ 4] 3808 	xor	a, a
      001735 93               [ 4] 3809 	sub	a, e
      001736 4F               [ 4] 3810 	ld	c, a
      001737 3E 00            [ 7] 3811 	ld	a, #0x00
      001739 9A               [ 4] 3812 	sbc	a, d
      00173A 47               [ 4] 3813 	ld	b, a
      00173B 3E 00            [ 7] 3814 	ld	a, #0x00
      00173D 9D               [ 4] 3815 	sbc	a, l
      00173E 5F               [ 4] 3816 	ld	e, a
      00173F 9F               [ 4] 3817 	sbc	a, a
      001740 94               [ 4] 3818 	sub	a, h
      001741 57               [ 4] 3819 	ld	d, a
      001742 ED 43r18r00      [20] 3820 	ld	((_player + 12)), bc
      001746 ED 53r1Ar00      [20] 3821 	ld	((_player + 12)+2), de
                                   3822 ;pocket_platformer.c:663: if (player.jump_frames >= res_physics->max_jump_frames) {
      00174A 2Ar02r00         [16] 3823 	ld	hl, (_res_physics)
      00174D 11 0C 00         [10] 3824 	ld	de, #0x000c
      001750 19               [11] 3825 	add	hl, de
      001751 DD 7E FD         [19] 3826 	ld	a,-3 (ix)
      001754 96               [ 7] 3827 	sub	a,(hl)
      001755 38 38            [12] 3828 	jr	C, 00143$
                                   3829 ;pocket_platformer.c:664: player.jumping = 0;
      001757 21r1Er00         [10] 3830 	ld	hl, #(_player + 18)
      00175A 36 00            [10] 3831 	ld	(hl), #0x00
                                   3832 ;pocket_platformer.c:665: player.falling = 1;
      00175C 21r1Dr00         [10] 3833 	ld	hl, #(_player + 17)
      00175F 36 01            [10] 3834 	ld	(hl), #0x01
                                   3835 ;pocket_platformer.c:666: player.forced_jump_speed = 0;
      001761 21 00 00         [10] 3836 	ld	hl, #0x0000
      001764 22r28r00         [16] 3837 	ld	((_player + 28)), hl
      001767 22r2Ar00         [16] 3838 	ld	((_player + 28)+2), hl
      00176A 18 23            [12] 3839 	jr	00143$
      00176C                       3840 00139$:
                                   3841 ;pocket_platformer.c:668: } else if (player.forced_jump_speed == 0) {
      00176C DD 7E F9         [19] 3842 	ld	a, -7 (ix)
      00176F DD B6 F8         [19] 3843 	or	a, -8 (ix)
      001772 DD B6 F7         [19] 3844 	or	a, -9 (ix)
      001775 DD B6 F6         [19] 3845 	or	a, -10 (ix)
      001778 20 15            [12] 3846 	jr	NZ, 00143$
                                   3847 ;pocket_platformer.c:670: player.jumping = 0;
      00177A 21r1Er00         [10] 3848 	ld	hl, #(_player + 18)
      00177D 36 00            [10] 3849 	ld	(hl), #0x00
                                   3850 ;pocket_platformer.c:671: player.jump_frames = res_physics->max_jump_frames;
      00177F 2Ar02r00         [16] 3851 	ld	hl, (_res_physics)
      001782 11 0C 00         [10] 3852 	ld	de, #0x000c
      001785 19               [11] 3853 	add	hl, de
      001786 7E               [ 7] 3854 	ld	a, (hl)
      001787 32r22r00         [13] 3855 	ld	(#(_player + 22)),a
                                   3856 ;pocket_platformer.c:672: player.falling = 1;
      00178A 21r1Dr00         [10] 3857 	ld	hl, #(_player + 17)
      00178D 36 01            [10] 3858 	ld	(hl), #0x01
      00178F                       3859 00143$:
                                   3860 ;pocket_platformer.c:678: if (player.wall_jumping) {
      00178F 3Ar1Fr00         [13] 3861 	ld	a, (#(_player + 19) + 0)
      001792 B7               [ 4] 3862 	or	a, a
      001793 CAr90r19         [10] 3863 	jp	Z, 00159$
                                   3864 ;pocket_platformer.c:679: if (joy & PORT_A_KEY_1) {
      001796 DD 7E FB         [19] 3865 	ld	a, -5 (ix)
      001799 DD B6 FA         [19] 3866 	or	a, -6 (ix)
      00179C CAr7Br19         [10] 3867 	jp	Z, 00156$
                                   3868 ;pocket_platformer.c:680: player.jump_frames++;
      00179F 3Ar22r00         [13] 3869 	ld	a, (#(_player + 22) + 0)
      0017A2 3C               [ 4] 3870 	inc	a
      0017A3 32r22r00         [13] 3871 	ld	(#(_player + 22)),a
                                   3872 ;pocket_platformer.c:587: long max_spd = (long)res_physics->max_speed;
      0017A6 ED 4Br02r00      [20] 3873 	ld	bc, (_res_physics)
                                   3874 ;pocket_platformer.c:681: long remaining = (long)(res_physics->max_jump_frames - player.jump_frames);
      0017AA 59               [ 4] 3875 	ld	e, c
      0017AB 50               [ 4] 3876 	ld	d, b
      0017AC 21 0C 00         [10] 3877 	ld	hl, #12
      0017AF 19               [11] 3878 	add	hl, de
      0017B0 6E               [ 7] 3879 	ld	l, (hl)
                                   3880 ;	spillPairReg hl
      0017B1 26 00            [ 7] 3881 	ld	h, #0x00
                                   3882 ;	spillPairReg hl
                                   3883 ;	spillPairReg hl
      0017B3 5F               [ 4] 3884 	ld	e, a
      0017B4 16 00            [ 7] 3885 	ld	d, #0x00
      0017B6 BF               [ 4] 3886 	cp	a, a
      0017B7 ED 52            [15] 3887 	sbc	hl, de
      0017B9 DD 75 F8         [19] 3888 	ld	-8 (ix), l
      0017BC 7C               [ 4] 3889 	ld	a, h
      0017BD DD 77 F9         [19] 3890 	ld	-7 (ix), a
      0017C0 07               [ 4] 3891 	rlca
      0017C1 9F               [ 4] 3892 	sbc	a, a
      0017C2 DD 77 FA         [19] 3893 	ld	-6 (ix), a
      0017C5 DD 77 FB         [19] 3894 	ld	-5 (ix), a
                                   3895 ;pocket_platformer.c:682: player.vy = -(remaining * (long)res_physics->jump_speed);
      0017C8 21 0A 00         [10] 3896 	ld	hl, #10
      0017CB 09               [11] 3897 	add	hl, bc
      0017CC 4E               [ 7] 3898 	ld	c, (hl)
      0017CD 23               [ 6] 3899 	inc	hl
      0017CE 7E               [ 7] 3900 	ld	a, (hl)
      0017CF 47               [ 4] 3901 	ld	b, a
      0017D0 07               [ 4] 3902 	rlca
      0017D1 ED 62            [15] 3903 	sbc	hl, hl
      0017D3 E5               [11] 3904 	push	hl
      0017D4 C5               [11] 3905 	push	bc
      0017D5 DD 5E F8         [19] 3906 	ld	e, -8 (ix)
      0017D8 DD 56 F9         [19] 3907 	ld	d, -7 (ix)
      0017DB DD 6E FA         [19] 3908 	ld	l, -6 (ix)
                                   3909 ;	spillPairReg hl
                                   3910 ;	spillPairReg hl
      0017DE DD 66 FB         [19] 3911 	ld	h, -5 (ix)
                                   3912 ;	spillPairReg hl
                                   3913 ;	spillPairReg hl
      0017E1 CDr00r00         [17] 3914 	call	__mullong
      0017E4 F1               [10] 3915 	pop	af
      0017E5 F1               [10] 3916 	pop	af
      0017E6 AF               [ 4] 3917 	xor	a, a
      0017E7 93               [ 4] 3918 	sub	a, e
      0017E8 4F               [ 4] 3919 	ld	c, a
      0017E9 3E 00            [ 7] 3920 	ld	a, #0x00
      0017EB 9A               [ 4] 3921 	sbc	a, d
      0017EC 47               [ 4] 3922 	ld	b, a
      0017ED 3E 00            [ 7] 3923 	ld	a, #0x00
      0017EF 9D               [ 4] 3924 	sbc	a, l
      0017F0 5F               [ 4] 3925 	ld	e, a
      0017F1 9F               [ 4] 3926 	sbc	a, a
      0017F2 94               [ 4] 3927 	sub	a, h
      0017F3 57               [ 4] 3928 	ld	d, a
      0017F4 ED 43r18r00      [20] 3929 	ld	((_player + 12)), bc
      0017F8 ED 53r1Ar00      [20] 3930 	ld	((_player + 12)+2), de
                                   3931 ;pocket_platformer.c:684: if (player.wall_push_frames < (res_physics->max_jump_frames / 2 - 4)) {
      0017FC 21r21r00         [10] 3932 	ld	hl, #(_player + 21)
      0017FF 4E               [ 7] 3933 	ld	c, (hl)
                                   3934 ;pocket_platformer.c:587: long max_spd = (long)res_physics->max_speed;
      001800 2Ar02r00         [16] 3935 	ld	hl, (_res_physics)
                                   3936 ;pocket_platformer.c:684: if (player.wall_push_frames < (res_physics->max_jump_frames / 2 - 4)) {
      001803 DD 75 FC         [19] 3937 	ld	-4 (ix), l
      001806 DD 74 FD         [19] 3938 	ld	-3 (ix), h
      001809 11 0C 00         [10] 3939 	ld	de, #12
      00180C 19               [11] 3940 	add	hl, de
      00180D 6E               [ 7] 3941 	ld	l, (hl)
                                   3942 ;	spillPairReg hl
      00180E 26 00            [ 7] 3943 	ld	h, #0x00
                                   3944 ;	spillPairReg hl
                                   3945 ;	spillPairReg hl
      001810 5D               [ 4] 3946 	ld	e, l
      001811 54               [ 4] 3947 	ld	d, h
      001812 CB 7C            [ 8] 3948 	bit	7, h
      001814 28 02            [12] 3949 	jr	Z, 00239$
      001816 EB               [ 4] 3950 	ex	de, hl
      001817 13               [ 6] 3951 	inc	de
      001818                       3952 00239$:
      001818 CB 2A            [ 8] 3953 	sra	d
      00181A CB 1B            [ 8] 3954 	rr	e
      00181C 7B               [ 4] 3955 	ld	a, e
      00181D C6 FC            [ 7] 3956 	add	a, #0xfc
      00181F 5F               [ 4] 3957 	ld	e, a
      001820 7A               [ 4] 3958 	ld	a, d
      001821 CE FF            [ 7] 3959 	adc	a, #0xff
      001823 57               [ 4] 3960 	ld	d, a
      001824 06 00            [ 7] 3961 	ld	b, #0x00
      001826 79               [ 4] 3962 	ld	a, c
      001827 93               [ 4] 3963 	sub	a, e
      001828 78               [ 4] 3964 	ld	a, b
      001829 9A               [ 4] 3965 	sbc	a, d
      00182A E2r2Fr18         [10] 3966 	jp	PO, 00525$
      00182D EE 80            [ 7] 3967 	xor	a, #0x80
      00182F                       3968 00525$:
      00182F F2r61r19         [10] 3969 	jp	P, 00152$
                                   3970 ;pocket_platformer.c:686: long push = remaining * (long)res_physics->jump_speed;
      001832 DD 4E FC         [19] 3971 	ld	c, -4 (ix)
      001835 DD 46 FD         [19] 3972 	ld	b, -3 (ix)
      001838 21 0A 00         [10] 3973 	ld	hl, #10
      00183B 09               [11] 3974 	add	hl, bc
      00183C 4E               [ 7] 3975 	ld	c, (hl)
      00183D 23               [ 6] 3976 	inc	hl
      00183E 46               [ 7] 3977 	ld	b, (hl)
      00183F 78               [ 4] 3978 	ld	a, b
      001840 07               [ 4] 3979 	rlca
      001841 ED 62            [15] 3980 	sbc	hl, hl
      001843 E5               [11] 3981 	push	hl
      001844 C5               [11] 3982 	push	bc
      001845 DD 5E F8         [19] 3983 	ld	e, -8 (ix)
      001848 DD 56 F9         [19] 3984 	ld	d, -7 (ix)
      00184B DD 6E FA         [19] 3985 	ld	l, -6 (ix)
                                   3986 ;	spillPairReg hl
                                   3987 ;	spillPairReg hl
      00184E DD 66 FB         [19] 3988 	ld	h, -5 (ix)
                                   3989 ;	spillPairReg hl
                                   3990 ;	spillPairReg hl
      001851 CDr00r00         [17] 3991 	call	__mullong
      001854 F1               [10] 3992 	pop	af
      001855 F1               [10] 3993 	pop	af
      001856 4D               [ 4] 3994 	ld	c, l
      001857 44               [ 4] 3995 	ld	b, h
                                   3996 ;pocket_platformer.c:687: if (player.wall_jump_dir == 1) {   /* off left wall → push right */
      001858 3Ar20r00         [13] 3997 	ld	a, (#(_player + 20) + 0)
      00185B DD 77 FD         [19] 3998 	ld	-3 (ix), a
                                   3999 ;pocket_platformer.c:601: player.vx = FP_MUL(player.vx, fric);
      00185E D5               [11] 4000 	push	de
      00185F C5               [11] 4001 	push	bc
      001860 11r14r00         [10] 4002 	ld	de, #(_player + 8)
      001863 21 08 00         [10] 4003 	ld	hl, #8
      001866 39               [11] 4004 	add	hl, sp
      001867 EB               [ 4] 4005 	ex	de, hl
      001868 01 04 00         [10] 4006 	ld	bc, #0x0004
      00186B ED B0            [21] 4007 	ldir
      00186D C1               [10] 4008 	pop	bc
      00186E D1               [10] 4009 	pop	de
                                   4010 ;pocket_platformer.c:688: player.vx += push >> 4;         /* scale down push */
      00186F DD 73 F6         [19] 4011 	ld	-10 (ix), e
      001872 DD 72 F7         [19] 4012 	ld	-9 (ix), d
      001875 DD 71 F8         [19] 4013 	ld	-8 (ix), c
      001878 DD 70 F9         [19] 4014 	ld	-7 (ix), b
      00187B 06 04            [ 7] 4015 	ld	b, #0x04
      00187D                       4016 00526$:
      00187D DD CB F9 2E      [23] 4017 	sra	-7 (ix)
      001881 DD CB F8 1E      [23] 4018 	rr	-8 (ix)
      001885 DD CB F7 1E      [23] 4019 	rr	-9 (ix)
      001889 DD CB F6 1E      [23] 4020 	rr	-10 (ix)
      00188D 10 EE            [13] 4021 	djnz	00526$
                                   4022 ;pocket_platformer.c:687: if (player.wall_jump_dir == 1) {   /* off left wall → push right */
      00188F DD 7E FD         [19] 4023 	ld	a, -3 (ix)
      001892 3D               [ 4] 4024 	dec	a
      001893 20 5D            [12] 4025 	jr	NZ, 00149$
                                   4026 ;pocket_platformer.c:688: player.vx += push >> 4;         /* scale down push */
      001895 DD 7E F2         [19] 4027 	ld	a, -14 (ix)
      001898 DD 86 F6         [19] 4028 	add	a, -10 (ix)
      00189B DD 77 FA         [19] 4029 	ld	-6 (ix), a
      00189E DD 7E F3         [19] 4030 	ld	a, -13 (ix)
      0018A1 DD 8E F7         [19] 4031 	adc	a, -9 (ix)
      0018A4 DD 77 FB         [19] 4032 	ld	-5 (ix), a
      0018A7 DD 7E F4         [19] 4033 	ld	a, -12 (ix)
      0018AA DD 8E F8         [19] 4034 	adc	a, -8 (ix)
      0018AD DD 77 FC         [19] 4035 	ld	-4 (ix), a
      0018B0 DD 7E F5         [19] 4036 	ld	a, -11 (ix)
      0018B3 DD 8E F9         [19] 4037 	adc	a, -7 (ix)
      0018B6 DD 77 FD         [19] 4038 	ld	-3 (ix), a
      0018B9 11r14r00         [10] 4039 	ld	de, #(_player + 8)
      0018BC 21 0C 00         [10] 4040 	ld	hl, #12
      0018BF 39               [11] 4041 	add	hl, sp
      0018C0 01 04 00         [10] 4042 	ld	bc, #0x0004
      0018C3 ED B0            [21] 4043 	ldir
                                   4044 ;pocket_platformer.c:587: long max_spd = (long)res_physics->max_speed;
      0018C5 2Ar02r00         [16] 4045 	ld	hl, (_res_physics)
      0018C8 4E               [ 7] 4046 	ld	c, (hl)
      0018C9 23               [ 6] 4047 	inc	hl
      0018CA 46               [ 7] 4048 	ld	b, (hl)
                                   4049 ;pocket_platformer.c:689: if (player.vx > (long)res_physics->max_speed)
      0018CB 78               [ 4] 4050 	ld	a, b
      0018CC 07               [ 4] 4051 	rlca
      0018CD 9F               [ 4] 4052 	sbc	a, a
      0018CE 5F               [ 4] 4053 	ld	e, a
      0018CF 57               [ 4] 4054 	ld	d, a
      0018D0 79               [ 4] 4055 	ld	a, c
      0018D1 DD 96 FA         [19] 4056 	sub	a, -6 (ix)
      0018D4 78               [ 4] 4057 	ld	a, b
      0018D5 DD 9E FB         [19] 4058 	sbc	a, -5 (ix)
      0018D8 7B               [ 4] 4059 	ld	a, e
      0018D9 DD 9E FC         [19] 4060 	sbc	a, -4 (ix)
      0018DC 7A               [ 4] 4061 	ld	a, d
      0018DD DD 9E FD         [19] 4062 	sbc	a, -3 (ix)
      0018E0 E2rE5r18         [10] 4063 	jp	PO, 00530$
      0018E3 EE 80            [ 7] 4064 	xor	a, #0x80
      0018E5                       4065 00530$:
      0018E5 F2r5Ar19         [10] 4066 	jp	P, 00150$
                                   4067 ;pocket_platformer.c:690: player.vx = (long)res_physics->max_speed;
      0018E8 ED 43r14r00      [20] 4068 	ld	((_player + 8)), bc
      0018EC ED 53r16r00      [20] 4069 	ld	((_player + 8)+2), de
      0018F0 18 68            [12] 4070 	jr	00150$
      0018F2                       4071 00149$:
                                   4072 ;pocket_platformer.c:692: player.vx -= push >> 4;
      0018F2 DD 7E F2         [19] 4073 	ld	a, -14 (ix)
      0018F5 DD 96 F6         [19] 4074 	sub	a, -10 (ix)
      0018F8 DD 77 FA         [19] 4075 	ld	-6 (ix), a
      0018FB DD 7E F3         [19] 4076 	ld	a, -13 (ix)
      0018FE DD 9E F7         [19] 4077 	sbc	a, -9 (ix)
      001901 DD 77 FB         [19] 4078 	ld	-5 (ix), a
      001904 DD 7E F4         [19] 4079 	ld	a, -12 (ix)
      001907 DD 9E F8         [19] 4080 	sbc	a, -8 (ix)
      00190A DD 77 FC         [19] 4081 	ld	-4 (ix), a
      00190D DD 7E F5         [19] 4082 	ld	a, -11 (ix)
      001910 DD 9E F9         [19] 4083 	sbc	a, -7 (ix)
      001913 DD 77 FD         [19] 4084 	ld	-3 (ix), a
      001916 11r14r00         [10] 4085 	ld	de, #(_player + 8)
      001919 21 0C 00         [10] 4086 	ld	hl, #12
      00191C 39               [11] 4087 	add	hl, sp
      00191D 01 04 00         [10] 4088 	ld	bc, #0x0004
      001920 ED B0            [21] 4089 	ldir
                                   4090 ;pocket_platformer.c:587: long max_spd = (long)res_physics->max_speed;
      001922 2Ar02r00         [16] 4091 	ld	hl, (_res_physics)
      001925 4E               [ 7] 4092 	ld	c, (hl)
      001926 23               [ 6] 4093 	inc	hl
      001927 46               [ 7] 4094 	ld	b, (hl)
                                   4095 ;pocket_platformer.c:689: if (player.vx > (long)res_physics->max_speed)
      001928 78               [ 4] 4096 	ld	a, b
      001929 07               [ 4] 4097 	rlca
      00192A 9F               [ 4] 4098 	sbc	a, a
      00192B 5F               [ 4] 4099 	ld	e, a
      00192C 57               [ 4] 4100 	ld	d, a
                                   4101 ;pocket_platformer.c:693: if (player.vx < -(long)res_physics->max_speed)
      00192D AF               [ 4] 4102 	xor	a, a
      00192E 91               [ 4] 4103 	sub	a, c
      00192F 4F               [ 4] 4104 	ld	c, a
      001930 3E 00            [ 7] 4105 	ld	a, #0x00
      001932 98               [ 4] 4106 	sbc	a, b
      001933 47               [ 4] 4107 	ld	b, a
      001934 21 00 00         [10] 4108 	ld	hl, #0x0000
      001937 ED 52            [15] 4109 	sbc	hl, de
      001939 EB               [ 4] 4110 	ex	de, hl
      00193A DD 7E FA         [19] 4111 	ld	a, -6 (ix)
      00193D 91               [ 4] 4112 	sub	a, c
      00193E DD 7E FB         [19] 4113 	ld	a, -5 (ix)
      001941 98               [ 4] 4114 	sbc	a, b
      001942 DD 7E FC         [19] 4115 	ld	a, -4 (ix)
      001945 9B               [ 4] 4116 	sbc	a, e
      001946 DD 7E FD         [19] 4117 	ld	a, -3 (ix)
      001949 9A               [ 4] 4118 	sbc	a, d
      00194A E2r4Fr19         [10] 4119 	jp	PO, 00531$
      00194D EE 80            [ 7] 4120 	xor	a, #0x80
      00194F                       4121 00531$:
      00194F F2r5Ar19         [10] 4122 	jp	P, 00150$
                                   4123 ;pocket_platformer.c:694: player.vx = -(long)res_physics->max_speed;
      001952 ED 43r14r00      [20] 4124 	ld	((_player + 8)), bc
      001956 ED 53r16r00      [20] 4125 	ld	((_player + 8)+2), de
      00195A                       4126 00150$:
                                   4127 ;pocket_platformer.c:696: player.wall_push_frames++;
      00195A 3Ar21r00         [13] 4128 	ld	a, (#(_player + 21) + 0)
      00195D 3C               [ 4] 4129 	inc	a
      00195E 32r21r00         [13] 4130 	ld	(#(_player + 21)),a
      001961                       4131 00152$:
                                   4132 ;pocket_platformer.c:698: if (player.jump_frames >= res_physics->max_jump_frames) {
      001961 3Ar22r00         [13] 4133 	ld	a, (#(_player + 22) + 0)
      001964 2Ar02r00         [16] 4134 	ld	hl, (_res_physics)
      001967 11 0C 00         [10] 4135 	ld	de, #0x000c
      00196A 19               [11] 4136 	add	hl, de
      00196B 4E               [ 7] 4137 	ld	c, (hl)
      00196C 91               [ 4] 4138 	sub	a, c
      00196D 38 21            [12] 4139 	jr	C, 00159$
                                   4140 ;pocket_platformer.c:699: player.wall_jumping = 0;
      00196F 21r1Fr00         [10] 4141 	ld	hl, #(_player + 19)
      001972 36 00            [10] 4142 	ld	(hl), #0x00
                                   4143 ;pocket_platformer.c:700: player.falling = 1;
      001974 21r1Dr00         [10] 4144 	ld	hl, #(_player + 17)
      001977 36 01            [10] 4145 	ld	(hl), #0x01
      001979 18 15            [12] 4146 	jr	00159$
      00197B                       4147 00156$:
                                   4148 ;pocket_platformer.c:703: player.wall_jumping = 0;
      00197B 21r1Fr00         [10] 4149 	ld	hl, #(_player + 19)
      00197E 36 00            [10] 4150 	ld	(hl), #0x00
                                   4151 ;pocket_platformer.c:704: player.jump_frames = res_physics->max_jump_frames;
      001980 2Ar02r00         [16] 4152 	ld	hl, (_res_physics)
      001983 11 0C 00         [10] 4153 	ld	de, #0x000c
      001986 19               [11] 4154 	add	hl, de
      001987 7E               [ 7] 4155 	ld	a, (hl)
      001988 32r22r00         [13] 4156 	ld	(#(_player + 22)),a
                                   4157 ;pocket_platformer.c:705: player.falling = 1;
      00198B 21r1Dr00         [10] 4158 	ld	hl, #(_player + 17)
      00198E 36 01            [10] 4159 	ld	(hl), #0x01
      001990                       4160 00159$:
                                   4161 ;pocket_platformer.c:710: if (!player.jumping && !player.wall_jumping && player.vy < 0) {
      001990 3Ar1Er00         [13] 4162 	ld	a, (#(_player + 18) + 0)
      001993 B7               [ 4] 4163 	or	a, a
      001994 20 52            [12] 4164 	jr	NZ, 00166$
      001996 3Ar1Fr00         [13] 4165 	ld	a, (#(_player + 19) + 0)
      001999 B7               [ 4] 4166 	or	a, a
      00199A 20 4C            [12] 4167 	jr	NZ, 00166$
      00199C ED 4Br18r00      [20] 4168 	ld	bc, (#(_player + 12) + 0)
      0019A0 2Ar1Ar00         [16] 4169 	ld	hl, (#(_player + 12) + 2)
      0019A3 CB 7C            [ 8] 4170 	bit	7, h
      0019A5 28 41            [12] 4171 	jr	Z, 00166$
                                   4172 ;pocket_platformer.c:711: player.vy = FP_MUL(player.vy, FP(0.75));
      0019A7 E5               [11] 4173 	push	hl
      0019A8 C5               [11] 4174 	push	bc
      0019A9 11 C0 00         [10] 4175 	ld	de, #0x00c0
      0019AC 21 00 00         [10] 4176 	ld	hl, #0x0000
      0019AF CDr00r00         [17] 4177 	call	__mullong
      0019B2 F1               [10] 4178 	pop	af
      0019B3 F1               [10] 4179 	pop	af
      0019B4 4D               [ 4] 4180 	ld	c, l
      0019B5 44               [ 4] 4181 	ld	b, h
      0019B6 3E 08            [ 7] 4182 	ld	a, #0x08
      0019B8                       4183 00532$:
      0019B8 CB 28            [ 8] 4184 	sra	b
      0019BA CB 19            [ 8] 4185 	rr	c
      0019BC CB 1A            [ 8] 4186 	rr	d
      0019BE CB 1B            [ 8] 4187 	rr	e
      0019C0 3D               [ 4] 4188 	dec	a
      0019C1 20 F5            [12] 4189 	jr	NZ, 00532$
      0019C3 ED 53r18r00      [20] 4190 	ld	((_player + 12)), de
      0019C7 ED 43r1Ar00      [20] 4191 	ld	((_player + 12)+2), bc
                                   4192 ;pocket_platformer.c:712: if (player.vy > -FP(0.5)) player.vy = 0;
      0019CB 3E 80            [ 7] 4193 	ld	a, #0x80
      0019CD BB               [ 4] 4194 	cp	a, e
      0019CE 3E FF            [ 7] 4195 	ld	a, #0xff
      0019D0 9A               [ 4] 4196 	sbc	a, d
      0019D1 3E FF            [ 7] 4197 	ld	a, #0xff
      0019D3 99               [ 4] 4198 	sbc	a, c
      0019D4 3E FF            [ 7] 4199 	ld	a, #0xff
      0019D6 98               [ 4] 4200 	sbc	a, b
      0019D7 E2rDCr19         [10] 4201 	jp	PO, 00534$
      0019DA EE 80            [ 7] 4202 	xor	a, #0x80
      0019DC                       4203 00534$:
      0019DC F2rE8r19         [10] 4204 	jp	P, 00166$
      0019DF 21 00 00         [10] 4205 	ld	hl, #0x0000
      0019E2 22r18r00         [16] 4206 	ld	((_player + 12)), hl
      0019E5 22r1Ar00         [16] 4207 	ld	((_player + 12)+2), hl
      0019E8                       4208 00166$:
                                   4209 ;pocket_platformer.c:714: }
      0019E8 DD F9            [10] 4210 	ld	sp, ix
      0019EA DD E1            [14] 4211 	pop	ix
      0019EC C9               [10] 4212 	ret
                                   4213 ;pocket_platformer.c:716: static void move_player_x(void) {
                                   4214 ;	---------------------------------
                                   4215 ; Function move_player_x
                                   4216 ; ---------------------------------
      0019ED                       4217 _move_player_x:
      0019ED DD E5            [15] 4218 	push	ix
      0019EF DD 21 00 00      [14] 4219 	ld	ix,#0
      0019F3 DD 39            [15] 4220 	add	ix,sp
      0019F5 21 F4 FF         [10] 4221 	ld	hl, #-12
      0019F8 39               [11] 4222 	add	hl, sp
      0019F9 F9               [ 6] 4223 	ld	sp, hl
                                   4224 ;pocket_platformer.c:717: long new_x = player.x + player.vx;
      0019FA 11r0Cr00         [10] 4225 	ld	de, #_player
      0019FD 21 00 00         [10] 4226 	ld	hl, #0
      001A00 39               [11] 4227 	add	hl, sp
      001A01 EB               [ 4] 4228 	ex	de, hl
      001A02 01 04 00         [10] 4229 	ld	bc, #0x0004
      001A05 ED B0            [21] 4230 	ldir
      001A07 11r14r00         [10] 4231 	ld	de, #(_player + 8)
      001A0A 21 08 00         [10] 4232 	ld	hl, #8
      001A0D 39               [11] 4233 	add	hl, sp
      001A0E EB               [ 4] 4234 	ex	de, hl
      001A0F 01 04 00         [10] 4235 	ld	bc, #0x0004
      001A12 ED B0            [21] 4236 	ldir
      001A14 DD 7E F4         [19] 4237 	ld	a, -12 (ix)
      001A17 DD 86 FC         [19] 4238 	add	a, -4 (ix)
      001A1A DD 77 F8         [19] 4239 	ld	-8 (ix), a
      001A1D DD 7E F5         [19] 4240 	ld	a, -11 (ix)
      001A20 DD 8E FD         [19] 4241 	adc	a, -3 (ix)
      001A23 DD 77 F9         [19] 4242 	ld	-7 (ix), a
      001A26 DD 7E F6         [19] 4243 	ld	a, -10 (ix)
      001A29 DD 8E FE         [19] 4244 	adc	a, -2 (ix)
      001A2C DD 77 FA         [19] 4245 	ld	-6 (ix), a
      001A2F DD 7E F7         [19] 4246 	ld	a, -9 (ix)
      001A32 DD 8E FF         [19] 4247 	adc	a, -1 (ix)
      001A35 DD 77 FB         [19] 4248 	ld	-5 (ix), a
      001A38 21 00 00         [10] 4249 	ld	hl, #0
      001A3B 39               [11] 4250 	add	hl, sp
      001A3C EB               [ 4] 4251 	ex	de, hl
      001A3D 21 04 00         [10] 4252 	ld	hl, #4
      001A40 39               [11] 4253 	add	hl, sp
      001A41 01 04 00         [10] 4254 	ld	bc, #4
      001A44 ED B0            [21] 4255 	ldir
                                   4256 ;pocket_platformer.c:718: long px    = new_x >> 8;
      001A46 DD 7E F4         [19] 4257 	ld	a, -12 (ix)
      001A49 DD 77 F8         [19] 4258 	ld	-8 (ix), a
      001A4C DD 7E F5         [19] 4259 	ld	a, -11 (ix)
      001A4F DD 77 F9         [19] 4260 	ld	-7 (ix), a
      001A52 DD 7E F6         [19] 4261 	ld	a, -10 (ix)
      001A55 DD 77 FA         [19] 4262 	ld	-6 (ix), a
      001A58 DD 7E F7         [19] 4263 	ld	a, -9 (ix)
      001A5B DD 77 FB         [19] 4264 	ld	-5 (ix), a
      001A5E 06 08            [ 7] 4265 	ld	b, #0x08
      001A60                       4266 00146$:
      001A60 DD CB FB 2E      [23] 4267 	sra	-5 (ix)
      001A64 DD CB FA 1E      [23] 4268 	rr	-6 (ix)
      001A68 DD CB F9 1E      [23] 4269 	rr	-7 (ix)
      001A6C DD CB F8 1E      [23] 4270 	rr	-8 (ix)
      001A70 10 EE            [13] 4271 	djnz	00146$
                                   4272 ;pocket_platformer.c:721: if (is_solid_px(r, player.y + FP(1)) ||
                                   4273 ;pocket_platformer.c:719: if (player.vx > 0) {
      001A72 AF               [ 4] 4274 	xor	a, a
      001A73 DD BE FC         [19] 4275 	cp	a, -4 (ix)
      001A76 DD 9E FD         [19] 4276 	sbc	a, -3 (ix)
      001A79 3E 00            [ 7] 4277 	ld	a, #0x00
      001A7B DD 9E FE         [19] 4278 	sbc	a, -2 (ix)
      001A7E 3E 00            [ 7] 4279 	ld	a, #0x00
      001A80 DD 9E FF         [19] 4280 	sbc	a, -1 (ix)
      001A83 E2r88r1A         [10] 4281 	jp	PO, 00148$
      001A86 EE 80            [ 7] 4282 	xor	a, #0x80
      001A88                       4283 00148$:
      001A88 F2r89r1B         [10] 4284 	jp	P, 00110$
                                   4285 ;pocket_platformer.c:720: long r = new_x + FP(PLAYER_W);
      001A8B DD 7E F4         [19] 4286 	ld	a, -12 (ix)
      001A8E DD 77 FC         [19] 4287 	ld	-4 (ix), a
      001A91 DD 7E F5         [19] 4288 	ld	a, -11 (ix)
      001A94 C6 06            [ 7] 4289 	add	a, #0x06
      001A96 DD 77 FD         [19] 4290 	ld	-3 (ix), a
      001A99 DD 7E F6         [19] 4291 	ld	a, -10 (ix)
      001A9C CE 00            [ 7] 4292 	adc	a, #0x00
      001A9E DD 77 FE         [19] 4293 	ld	-2 (ix), a
      001AA1 DD 7E F7         [19] 4294 	ld	a, -9 (ix)
      001AA4 CE 00            [ 7] 4295 	adc	a, #0x00
      001AA6 DD 77 FF         [19] 4296 	ld	-1 (ix), a
                                   4297 ;pocket_platformer.c:721: if (is_solid_px(r, player.y + FP(1)) ||
      001AA9 ED 4Br10r00      [20] 4298 	ld	bc, (#(_player + 4) + 0)
      001AAD 2Ar12r00         [16] 4299 	ld	hl, (#(_player + 4) + 2)
      001AB0 78               [ 4] 4300 	ld	a, b
      001AB1 C6 01            [ 7] 4301 	add	a, #0x01
      001AB3 47               [ 4] 4302 	ld	b, a
      001AB4 30 01            [12] 4303 	jr	NC, 00149$
      001AB6 23               [ 6] 4304 	inc	hl
      001AB7                       4305 00149$:
      001AB7 E5               [11] 4306 	push	hl
      001AB8 C5               [11] 4307 	push	bc
      001AB9 DD 5E FC         [19] 4308 	ld	e, -4 (ix)
      001ABC DD 56 FD         [19] 4309 	ld	d, -3 (ix)
      001ABF DD 6E FE         [19] 4310 	ld	l, -2 (ix)
                                   4311 ;	spillPairReg hl
                                   4312 ;	spillPairReg hl
      001AC2 DD 66 FF         [19] 4313 	ld	h, -1 (ix)
                                   4314 ;	spillPairReg hl
                                   4315 ;	spillPairReg hl
      001AC5 CDrA6r03         [17] 4316 	call	_is_solid_px
      001AC8 B7               [ 4] 4317 	or	a, a
      001AC9 20 23            [12] 4318 	jr	NZ, 00101$
                                   4319 ;pocket_platformer.c:722: is_solid_px(r, player.y + FP(PLAYER_H - 2))) {
      001ACB ED 4Br10r00      [20] 4320 	ld	bc, (#(_player + 4) + 0)
      001ACF 2Ar12r00         [16] 4321 	ld	hl, (#(_player + 4) + 2)
      001AD2 78               [ 4] 4322 	ld	a, b
      001AD3 C6 06            [ 7] 4323 	add	a, #0x06
      001AD5 47               [ 4] 4324 	ld	b, a
      001AD6 30 01            [12] 4325 	jr	NC, 00150$
      001AD8 23               [ 6] 4326 	inc	hl
      001AD9                       4327 00150$:
      001AD9 E5               [11] 4328 	push	hl
      001ADA C5               [11] 4329 	push	bc
      001ADB DD 5E FC         [19] 4330 	ld	e, -4 (ix)
      001ADE DD 56 FD         [19] 4331 	ld	d, -3 (ix)
      001AE1 DD 6E FE         [19] 4332 	ld	l, -2 (ix)
                                   4333 ;	spillPairReg hl
                                   4334 ;	spillPairReg hl
      001AE4 DD 66 FF         [19] 4335 	ld	h, -1 (ix)
                                   4336 ;	spillPairReg hl
                                   4337 ;	spillPairReg hl
      001AE7 CDrA6r03         [17] 4338 	call	_is_solid_px
      001AEA B7               [ 4] 4339 	or	a, a
      001AEB CAr32r1C         [10] 4340 	jp	Z, 00111$
      001AEE                       4341 00101$:
                                   4342 ;pocket_platformer.c:723: long tile_r = (px + PLAYER_W) / TILE_SIZE;
      001AEE DD 7E F8         [19] 4343 	ld	a, -8 (ix)
      001AF1 C6 06            [ 7] 4344 	add	a, #0x06
      001AF3 DD 77 FC         [19] 4345 	ld	-4 (ix), a
      001AF6 DD 7E F9         [19] 4346 	ld	a, -7 (ix)
      001AF9 CE 00            [ 7] 4347 	adc	a, #0x00
      001AFB DD 77 FD         [19] 4348 	ld	-3 (ix), a
      001AFE DD 7E FA         [19] 4349 	ld	a, -6 (ix)
      001B01 CE 00            [ 7] 4350 	adc	a, #0x00
      001B03 DD 77 FE         [19] 4351 	ld	-2 (ix), a
      001B06 DD 7E FB         [19] 4352 	ld	a, -5 (ix)
      001B09 CE 00            [ 7] 4353 	adc	a, #0x00
      001B0B DD 77 FF         [19] 4354 	ld	-1 (ix), a
      001B0E 21 04 00         [10] 4355 	ld	hl, #4
      001B11 39               [11] 4356 	add	hl, sp
      001B12 EB               [ 4] 4357 	ex	de, hl
      001B13 21 08 00         [10] 4358 	ld	hl, #8
      001B16 39               [11] 4359 	add	hl, sp
      001B17 01 04 00         [10] 4360 	ld	bc, #4
      001B1A ED B0            [21] 4361 	ldir
      001B1C DD CB FF 7E      [20] 4362 	bit	7, -1 (ix)
      001B20 28 20            [12] 4363 	jr	Z, 00114$
      001B22 DD 7E FC         [19] 4364 	ld	a, -4 (ix)
      001B25 C6 07            [ 7] 4365 	add	a, #0x07
      001B27 DD 77 F8         [19] 4366 	ld	-8 (ix), a
      001B2A DD 7E FD         [19] 4367 	ld	a, -3 (ix)
      001B2D CE 00            [ 7] 4368 	adc	a, #0x00
      001B2F DD 77 F9         [19] 4369 	ld	-7 (ix), a
      001B32 DD 7E FE         [19] 4370 	ld	a, -2 (ix)
      001B35 CE 00            [ 7] 4371 	adc	a, #0x00
      001B37 DD 77 FA         [19] 4372 	ld	-6 (ix), a
      001B3A DD 7E FF         [19] 4373 	ld	a, -1 (ix)
      001B3D CE 00            [ 7] 4374 	adc	a, #0x00
      001B3F DD 77 FB         [19] 4375 	ld	-5 (ix), a
      001B42                       4376 00114$:
      001B42 DD 6E F8         [19] 4377 	ld	l, -8 (ix)
                                   4378 ;	spillPairReg hl
                                   4379 ;	spillPairReg hl
      001B45 DD 66 F9         [19] 4380 	ld	h, -7 (ix)
                                   4381 ;	spillPairReg hl
                                   4382 ;	spillPairReg hl
      001B48 DD 5E FA         [19] 4383 	ld	e, -6 (ix)
      001B4B DD 56 FB         [19] 4384 	ld	d, -5 (ix)
      001B4E 06 03            [ 7] 4385 	ld	b, #0x03
      001B50                       4386 00151$:
      001B50 CB 2A            [ 8] 4387 	sra	d
      001B52 CB 1B            [ 8] 4388 	rr	e
      001B54 CB 1C            [ 8] 4389 	rr	h
      001B56 CB 1D            [ 8] 4390 	rr	l
      001B58 10 F6            [13] 4391 	djnz	00151$
                                   4392 ;pocket_platformer.c:724: new_x = (tile_r * TILE_SIZE - PLAYER_W - 1) * FP_ONE;
      001B5A 06 03            [ 7] 4393 	ld	b, #0x03
      001B5C                       4394 00153$:
      001B5C 29               [11] 4395 	add	hl, hl
      001B5D CB 13            [ 8] 4396 	rl	e
      001B5F CB 12            [ 8] 4397 	rl	d
      001B61 10 F9            [13] 4398 	djnz	00153$
      001B63 01 F9 FF         [10] 4399 	ld	bc, #0xfff9
      001B66 09               [11] 4400 	add	hl,bc
      001B67 4D               [ 4] 4401 	ld	c, l
      001B68 44               [ 4] 4402 	ld	b, h
      001B69 7B               [ 4] 4403 	ld	a, e
      001B6A CE FF            [ 7] 4404 	adc	a, #0xff
      001B6C 5F               [ 4] 4405 	ld	e, a
      001B6D 7A               [ 4] 4406 	ld	a, d
      001B6E CE FF            [ 7] 4407 	adc	a, #0xff
      001B70 DD 71 F5         [19] 4408 	ld	-11 (ix), c
      001B73 DD 70 F6         [19] 4409 	ld	-10 (ix), b
      001B76 DD 73 F7         [19] 4410 	ld	-9 (ix), e
      001B79 DD 36 F4 00      [19] 4411 	ld	-12 (ix), #0x00
                                   4412 ;pocket_platformer.c:725: player.vx = 0;
      001B7D 21 00 00         [10] 4413 	ld	hl, #0x0000
      001B80 22r14r00         [16] 4414 	ld	((_player + 8)), hl
      001B83 22r16r00         [16] 4415 	ld	((_player + 8)+2), hl
      001B86 C3r32r1C         [10] 4416 	jp	00111$
      001B89                       4417 00110$:
                                   4418 ;pocket_platformer.c:727: } else if (player.vx < 0) {
      001B89 DD CB FF 7E      [20] 4419 	bit	7, -1 (ix)
      001B8D CAr32r1C         [10] 4420 	jp	Z, 00111$
                                   4421 ;pocket_platformer.c:728: if (is_solid_px(new_x, player.y + FP(1)) ||
      001B90 ED 4Br10r00      [20] 4422 	ld	bc, (#(_player + 4) + 0)
      001B94 2Ar12r00         [16] 4423 	ld	hl, (#(_player + 4) + 2)
      001B97 78               [ 4] 4424 	ld	a, b
      001B98 C6 01            [ 7] 4425 	add	a, #0x01
      001B9A 47               [ 4] 4426 	ld	b, a
      001B9B 30 01            [12] 4427 	jr	NC, 00157$
      001B9D 23               [ 6] 4428 	inc	hl
      001B9E                       4429 00157$:
      001B9E E5               [11] 4430 	push	hl
      001B9F C5               [11] 4431 	push	bc
      001BA0 DD 5E F4         [19] 4432 	ld	e, -12 (ix)
      001BA3 DD 56 F5         [19] 4433 	ld	d, -11 (ix)
      001BA6 DD 6E F6         [19] 4434 	ld	l, -10 (ix)
                                   4435 ;	spillPairReg hl
                                   4436 ;	spillPairReg hl
      001BA9 DD 66 F7         [19] 4437 	ld	h, -9 (ix)
                                   4438 ;	spillPairReg hl
                                   4439 ;	spillPairReg hl
      001BAC CDrA6r03         [17] 4440 	call	_is_solid_px
      001BAF B7               [ 4] 4441 	or	a, a
      001BB0 20 22            [12] 4442 	jr	NZ, 00104$
                                   4443 ;pocket_platformer.c:729: is_solid_px(new_x, player.y + FP(PLAYER_H - 2))) {
      001BB2 ED 4Br10r00      [20] 4444 	ld	bc, (#(_player + 4) + 0)
      001BB6 2Ar12r00         [16] 4445 	ld	hl, (#(_player + 4) + 2)
      001BB9 78               [ 4] 4446 	ld	a, b
      001BBA C6 06            [ 7] 4447 	add	a, #0x06
      001BBC 47               [ 4] 4448 	ld	b, a
      001BBD 30 01            [12] 4449 	jr	NC, 00158$
      001BBF 23               [ 6] 4450 	inc	hl
      001BC0                       4451 00158$:
      001BC0 E5               [11] 4452 	push	hl
      001BC1 C5               [11] 4453 	push	bc
      001BC2 DD 5E F4         [19] 4454 	ld	e, -12 (ix)
      001BC5 DD 56 F5         [19] 4455 	ld	d, -11 (ix)
      001BC8 DD 6E F6         [19] 4456 	ld	l, -10 (ix)
                                   4457 ;	spillPairReg hl
                                   4458 ;	spillPairReg hl
      001BCB DD 66 F7         [19] 4459 	ld	h, -9 (ix)
                                   4460 ;	spillPairReg hl
                                   4461 ;	spillPairReg hl
      001BCE CDrA6r03         [17] 4462 	call	_is_solid_px
      001BD1 B7               [ 4] 4463 	or	a, a
      001BD2 28 5E            [12] 4464 	jr	Z, 00111$
      001BD4                       4465 00104$:
                                   4466 ;pocket_platformer.c:730: long tile_l = px / TILE_SIZE + 1;
      001BD4 DD 4E F8         [19] 4467 	ld	c, -8 (ix)
      001BD7 DD 46 F9         [19] 4468 	ld	b, -7 (ix)
      001BDA DD 6E FA         [19] 4469 	ld	l, -6 (ix)
                                   4470 ;	spillPairReg hl
                                   4471 ;	spillPairReg hl
      001BDD DD 66 FB         [19] 4472 	ld	h, -5 (ix)
                                   4473 ;	spillPairReg hl
                                   4474 ;	spillPairReg hl
      001BE0 DD CB FB 7E      [20] 4475 	bit	7, -5 (ix)
      001BE4 28 18            [12] 4476 	jr	Z, 00115$
      001BE6 DD 7E F8         [19] 4477 	ld	a, -8 (ix)
      001BE9 C6 07            [ 7] 4478 	add	a, #0x07
      001BEB 4F               [ 4] 4479 	ld	c, a
      001BEC DD 7E F9         [19] 4480 	ld	a, -7 (ix)
      001BEF CE 00            [ 7] 4481 	adc	a, #0x00
      001BF1 47               [ 4] 4482 	ld	b, a
      001BF2 DD 7E FA         [19] 4483 	ld	a, -6 (ix)
      001BF5 CE 00            [ 7] 4484 	adc	a, #0x00
      001BF7 6F               [ 4] 4485 	ld	l, a
                                   4486 ;	spillPairReg hl
                                   4487 ;	spillPairReg hl
      001BF8 DD 7E FB         [19] 4488 	ld	a, -5 (ix)
      001BFB CE 00            [ 7] 4489 	adc	a, #0x00
      001BFD 67               [ 4] 4490 	ld	h, a
                                   4491 ;	spillPairReg hl
                                   4492 ;	spillPairReg hl
      001BFE                       4493 00115$:
      001BFE 59               [ 4] 4494 	ld	e, c
      001BFF 50               [ 4] 4495 	ld	d, b
      001C00 06 03            [ 7] 4496 	ld	b, #0x03
      001C02                       4497 00159$:
      001C02 CB 2C            [ 8] 4498 	sra	h
      001C04 CB 1D            [ 8] 4499 	rr	l
      001C06 CB 1A            [ 8] 4500 	rr	d
      001C08 CB 1B            [ 8] 4501 	rr	e
      001C0A 10 F6            [13] 4502 	djnz	00159$
      001C0C 1C               [ 4] 4503 	inc	e
      001C0D 20 04            [12] 4504 	jr	NZ, 00161$
      001C0F 14               [ 4] 4505 	inc	d
      001C10 20 01            [12] 4506 	jr	NZ, 00161$
      001C12 23               [ 6] 4507 	inc	hl
      001C13                       4508 00161$:
                                   4509 ;pocket_platformer.c:731: new_x = tile_l * TILE_SIZE * FP_ONE;
      001C13 65               [ 4] 4510 	ld	h, l
                                   4511 ;	spillPairReg hl
                                   4512 ;	spillPairReg hl
      001C14 6A               [ 4] 4513 	ld	l, d
                                   4514 ;	spillPairReg hl
                                   4515 ;	spillPairReg hl
      001C15 53               [ 4] 4516 	ld	d, e
      001C16 1E 00            [ 7] 4517 	ld	e, #0x00
      001C18 06 03            [ 7] 4518 	ld	b, #0x03
      001C1A                       4519 00162$:
      001C1A CB 22            [ 8] 4520 	sla	d
      001C1C ED 6A            [15] 4521 	adc	hl, hl
      001C1E 10 FA            [13] 4522 	djnz	00162$
      001C20 33               [ 6] 4523 	inc	sp
      001C21 33               [ 6] 4524 	inc	sp
      001C22 D5               [11] 4525 	push	de
      001C23 DD 75 F6         [19] 4526 	ld	-10 (ix), l
      001C26 DD 74 F7         [19] 4527 	ld	-9 (ix), h
                                   4528 ;pocket_platformer.c:732: player.vx = 0;
      001C29 21 00 00         [10] 4529 	ld	hl, #0x0000
      001C2C 22r14r00         [16] 4530 	ld	((_player + 8)), hl
      001C2F 22r16r00         [16] 4531 	ld	((_player + 8)+2), hl
      001C32                       4532 00111$:
                                   4533 ;pocket_platformer.c:735: player.x = new_x;
      001C32 11r0Cr00         [10] 4534 	ld	de, #_player
      001C35 21 00 00         [10] 4535 	ld	hl, #0
      001C38 39               [11] 4536 	add	hl, sp
      001C39 01 04 00         [10] 4537 	ld	bc, #0x0004
      001C3C ED B0            [21] 4538 	ldir
                                   4539 ;pocket_platformer.c:736: }
      001C3E DD F9            [10] 4540 	ld	sp, ix
      001C40 DD E1            [14] 4541 	pop	ix
      001C42 C9               [10] 4542 	ret
                                   4543 ;pocket_platformer.c:738: static void move_player_y(void) {
                                   4544 ;	---------------------------------
                                   4545 ; Function move_player_y
                                   4546 ; ---------------------------------
      001C43                       4547 _move_player_y:
      001C43 DD E5            [15] 4548 	push	ix
      001C45 DD 21 00 00      [14] 4549 	ld	ix,#0
      001C49 DD 39            [15] 4550 	add	ix,sp
      001C4B 21 E3 FF         [10] 4551 	ld	hl, #-29
      001C4E 39               [11] 4552 	add	hl, sp
      001C4F F9               [ 6] 4553 	ld	sp, hl
                                   4554 ;pocket_platformer.c:739: long new_y = player.y + player.vy;
      001C50 ED 4Br10r00      [20] 4555 	ld	bc, (#(_player + 4) + 0)
      001C54 ED 5Br12r00      [20] 4556 	ld	de, (#(_player + 4) + 2)
      001C58 D5               [11] 4557 	push	de
      001C59 C5               [11] 4558 	push	bc
      001C5A 11r18r00         [10] 4559 	ld	de, #(_player + 12)
      001C5D 21 0D 00         [10] 4560 	ld	hl, #13
      001C60 39               [11] 4561 	add	hl, sp
      001C61 EB               [ 4] 4562 	ex	de, hl
      001C62 01 04 00         [10] 4563 	ld	bc, #0x0004
      001C65 ED B0            [21] 4564 	ldir
      001C67 C1               [10] 4565 	pop	bc
      001C68 D1               [10] 4566 	pop	de
      001C69 79               [ 4] 4567 	ld	a, c
      001C6A DD 86 EC         [19] 4568 	add	a, -20 (ix)
      001C6D 4F               [ 4] 4569 	ld	c, a
      001C6E 78               [ 4] 4570 	ld	a, b
      001C6F DD 8E ED         [19] 4571 	adc	a, -19 (ix)
      001C72 47               [ 4] 4572 	ld	b, a
      001C73 7B               [ 4] 4573 	ld	a, e
      001C74 DD 8E EE         [19] 4574 	adc	a, -18 (ix)
      001C77 5F               [ 4] 4575 	ld	e, a
      001C78 7A               [ 4] 4576 	ld	a, d
      001C79 DD 8E EF         [19] 4577 	adc	a, -17 (ix)
      001C7C DD 71 FC         [19] 4578 	ld	-4 (ix), c
      001C7F DD 70 FD         [19] 4579 	ld	-3 (ix), b
      001C82 DD 73 FE         [19] 4580 	ld	-2 (ix), e
      001C85 DD 77 FF         [19] 4581 	ld	-1 (ix), a
                                   4582 ;pocket_platformer.c:740: long py    = new_y >> 8;
      001C88 DD 7E FC         [19] 4583 	ld	a, -4 (ix)
      001C8B DD 77 F8         [19] 4584 	ld	-8 (ix), a
      001C8E DD 7E FD         [19] 4585 	ld	a, -3 (ix)
      001C91 DD 77 F9         [19] 4586 	ld	-7 (ix), a
      001C94 DD 7E FE         [19] 4587 	ld	a, -2 (ix)
      001C97 DD 77 FA         [19] 4588 	ld	-6 (ix), a
      001C9A DD 7E FF         [19] 4589 	ld	a, -1 (ix)
      001C9D DD 77 FB         [19] 4590 	ld	-5 (ix), a
      001CA0 06 08            [ 7] 4591 	ld	b, #0x08
      001CA2                       4592 00338$:
      001CA2 DD CB FB 2E      [23] 4593 	sra	-5 (ix)
      001CA6 DD CB FA 1E      [23] 4594 	rr	-6 (ix)
      001CAA DD CB F9 1E      [23] 4595 	rr	-7 (ix)
      001CAE DD CB F8 1E      [23] 4596 	rr	-8 (ix)
      001CB2 10 EE            [13] 4597 	djnz	00338$
      001CB4 21 0D 00         [10] 4598 	ld	hl, #13
      001CB7 39               [11] 4599 	add	hl, sp
      001CB8 EB               [ 4] 4600 	ex	de, hl
      001CB9 21 15 00         [10] 4601 	ld	hl, #21
      001CBC 39               [11] 4602 	add	hl, sp
      001CBD 01 04 00         [10] 4603 	ld	bc, #4
      001CC0 ED B0            [21] 4604 	ldir
                                   4605 ;pocket_platformer.c:743: if (is_solid_falling_px(player.x + FP(1),            b) ||
      001CC2 ED 4Br0Cr00      [20] 4606 	ld	bc, (#_player + 0)
      001CC6 2Ar0Er00         [16] 4607 	ld	hl, (#_player + 2)
                                   4608 ;pocket_platformer.c:768: player.jumping = 0;
                                   4609 ;pocket_platformer.c:769: player.wall_jumping = 0;
                                   4610 ;pocket_platformer.c:743: if (is_solid_falling_px(player.x + FP(1),            b) ||
      001CC9 DD 71 F4         [19] 4611 	ld	-12 (ix), c
      001CCC 78               [ 4] 4612 	ld	a, b
      001CCD C6 01            [ 7] 4613 	add	a, #0x01
      001CCF DD 77 F5         [19] 4614 	ld	-11 (ix), a
      001CD2 7D               [ 4] 4615 	ld	a, l
      001CD3 CE 00            [ 7] 4616 	adc	a, #0x00
      001CD5 DD 77 F6         [19] 4617 	ld	-10 (ix), a
      001CD8 7C               [ 4] 4618 	ld	a, h
      001CD9 CE 00            [ 7] 4619 	adc	a, #0x00
      001CDB DD 77 F7         [19] 4620 	ld	-9 (ix), a
                                   4621 ;pocket_platformer.c:741: if (player.vy >= 0) {
      001CDE DD CB EF 7E      [20] 4622 	bit	7, -17 (ix)
      001CE2 C2r36r1F         [10] 4623 	jp	NZ, 00131$
                                   4624 ;pocket_platformer.c:742: long b = new_y + FP(PLAYER_H);
      001CE5 DD 4E FC         [19] 4625 	ld	c, -4 (ix)
      001CE8 DD 7E FD         [19] 4626 	ld	a, -3 (ix)
      001CEB C6 08            [ 7] 4627 	add	a, #0x08
      001CED 47               [ 4] 4628 	ld	b, a
      001CEE DD 7E FE         [19] 4629 	ld	a, -2 (ix)
      001CF1 CE 00            [ 7] 4630 	adc	a, #0x00
      001CF3 FD E5            [15] 4631 	push	iy
      001CF5 DD 77 E1         [19] 4632 	ld	-31 (ix), a
      001CF8 FD E1            [14] 4633 	pop	iy
      001CFA DD 7E FF         [19] 4634 	ld	a, -1 (ix)
      001CFD CE 00            [ 7] 4635 	adc	a, #0x00
      001CFF FD E5            [15] 4636 	push	iy
      001D01 DD 77 E2         [19] 4637 	ld	-30 (ix), a
      001D04 FD E1            [14] 4638 	pop	iy
                                   4639 ;pocket_platformer.c:743: if (is_solid_falling_px(player.x + FP(1),            b) ||
      001D06 C5               [11] 4640 	push	bc
      001D07 FD E5            [15] 4641 	push	iy
      001D09 FD E5            [15] 4642 	push	iy
      001D0B C5               [11] 4643 	push	bc
      001D0C DD 5E F4         [19] 4644 	ld	e, -12 (ix)
      001D0F DD 56 F5         [19] 4645 	ld	d, -11 (ix)
      001D12 DD 6E F6         [19] 4646 	ld	l, -10 (ix)
                                   4647 ;	spillPairReg hl
                                   4648 ;	spillPairReg hl
      001D15 DD 66 F7         [19] 4649 	ld	h, -9 (ix)
                                   4650 ;	spillPairReg hl
                                   4651 ;	spillPairReg hl
      001D18 CDrC0r06         [17] 4652 	call	_is_solid_falling_px
      001D1B FD E1            [14] 4653 	pop	iy
      001D1D C1               [10] 4654 	pop	bc
      001D1E B7               [ 4] 4655 	or	a, a
      001D1F 20 18            [12] 4656 	jr	NZ, 00108$
                                   4657 ;pocket_platformer.c:744: is_solid_falling_px(player.x + FP(PLAYER_W - 2), b)) {
      001D21 ED 5Br0Cr00      [20] 4658 	ld	de, (#_player + 0)
      001D25 2Ar0Er00         [16] 4659 	ld	hl, (#_player + 2)
      001D28 7A               [ 4] 4660 	ld	a, d
      001D29 C6 04            [ 7] 4661 	add	a, #0x04
      001D2B 57               [ 4] 4662 	ld	d, a
      001D2C 30 01            [12] 4663 	jr	NC, 00340$
      001D2E 23               [ 6] 4664 	inc	hl
      001D2F                       4665 00340$:
      001D2F FD E5            [15] 4666 	push	iy
      001D31 C5               [11] 4667 	push	bc
      001D32 CDrC0r06         [17] 4668 	call	_is_solid_falling_px
      001D35 B7               [ 4] 4669 	or	a, a
      001D36 CAr72r23         [10] 4670 	jp	Z, 00132$
      001D39                       4671 00108$:
                                   4672 ;pocket_platformer.c:745: long tile_b = (py + PLAYER_H) / TILE_SIZE;
      001D39 DD 7E F0         [19] 4673 	ld	a, -16 (ix)
      001D3C C6 08            [ 7] 4674 	add	a, #0x08
      001D3E DD 77 F4         [19] 4675 	ld	-12 (ix), a
      001D41 DD 7E F1         [19] 4676 	ld	a, -15 (ix)
      001D44 CE 00            [ 7] 4677 	adc	a, #0x00
      001D46 DD 77 F5         [19] 4678 	ld	-11 (ix), a
      001D49 DD 7E F2         [19] 4679 	ld	a, -14 (ix)
      001D4C CE 00            [ 7] 4680 	adc	a, #0x00
      001D4E DD 77 F6         [19] 4681 	ld	-10 (ix), a
      001D51 DD 7E F3         [19] 4682 	ld	a, -13 (ix)
      001D54 CE 00            [ 7] 4683 	adc	a, #0x00
      001D56 DD 77 F7         [19] 4684 	ld	-9 (ix), a
      001D59 21 15 00         [10] 4685 	ld	hl, #21
      001D5C 39               [11] 4686 	add	hl, sp
      001D5D EB               [ 4] 4687 	ex	de, hl
      001D5E 21 11 00         [10] 4688 	ld	hl, #17
      001D61 39               [11] 4689 	add	hl, sp
      001D62 01 04 00         [10] 4690 	ld	bc, #4
      001D65 ED B0            [21] 4691 	ldir
      001D67 DD CB F7 7E      [20] 4692 	bit	7, -9 (ix)
      001D6B 28 20            [12] 4693 	jr	Z, 00141$
      001D6D DD 7E F4         [19] 4694 	ld	a, -12 (ix)
      001D70 C6 07            [ 7] 4695 	add	a, #0x07
      001D72 DD 77 F8         [19] 4696 	ld	-8 (ix), a
      001D75 DD 7E F5         [19] 4697 	ld	a, -11 (ix)
      001D78 CE 00            [ 7] 4698 	adc	a, #0x00
      001D7A DD 77 F9         [19] 4699 	ld	-7 (ix), a
      001D7D DD 7E F6         [19] 4700 	ld	a, -10 (ix)
      001D80 CE 00            [ 7] 4701 	adc	a, #0x00
      001D82 DD 77 FA         [19] 4702 	ld	-6 (ix), a
      001D85 DD 7E F7         [19] 4703 	ld	a, -9 (ix)
      001D88 CE 00            [ 7] 4704 	adc	a, #0x00
      001D8A DD 77 FB         [19] 4705 	ld	-5 (ix), a
      001D8D                       4706 00141$:
      001D8D DD 7E F8         [19] 4707 	ld	a, -8 (ix)
      001D90 DD 77 F2         [19] 4708 	ld	-14 (ix), a
      001D93 DD 7E F9         [19] 4709 	ld	a, -7 (ix)
      001D96 DD 77 F3         [19] 4710 	ld	-13 (ix), a
      001D99 DD 7E FA         [19] 4711 	ld	a, -6 (ix)
      001D9C DD 77 F4         [19] 4712 	ld	-12 (ix), a
      001D9F DD 7E FB         [19] 4713 	ld	a, -5 (ix)
      001DA2 DD 77 F5         [19] 4714 	ld	-11 (ix), a
      001DA5 06 03            [ 7] 4715 	ld	b, #0x03
      001DA7                       4716 00341$:
      001DA7 DD CB F5 2E      [23] 4717 	sra	-11 (ix)
      001DAB DD CB F4 1E      [23] 4718 	rr	-12 (ix)
      001DAF DD CB F3 1E      [23] 4719 	rr	-13 (ix)
      001DB3 DD CB F2 1E      [23] 4720 	rr	-14 (ix)
      001DB7 10 EE            [13] 4721 	djnz	00341$
                                   4722 ;pocket_platformer.c:748: if (res_header->one_way_vram_idx) {
      001DB9 FD 2Ar00r00      [20] 4723 	ld	iy, (_res_header)
      001DBD FD 7E 06         [19] 4724 	ld	a, 6 (iy)
      001DC0 B7               [ 4] 4725 	or	a, a
      001DC1 CArE1r1E         [10] 4726 	jp	Z, 00106$
                                   4727 ;pocket_platformer.c:749: unsigned char t1 = get_tile(
      001DC4 DD 7E F2         [19] 4728 	ld	a, -14 (ix)
      001DC7 DD 77 FB         [19] 4729 	ld	-5 (ix), a
      001DCA ED 4Br0Cr00      [20] 4730 	ld	bc, (#_player + 0)
      001DCE ED 5Br0Er00      [20] 4731 	ld	de, (#_player + 2)
      001DD2 3E 08            [ 7] 4732 	ld	a, #0x08
      001DD4                       4733 00343$:
      001DD4 CB 2A            [ 8] 4734 	sra	d
      001DD6 CB 1B            [ 8] 4735 	rr	e
      001DD8 CB 18            [ 8] 4736 	rr	b
      001DDA CB 19            [ 8] 4737 	rr	c
      001DDC 3D               [ 4] 4738 	dec	a
      001DDD 20 F5            [12] 4739 	jr	NZ, 00343$
      001DDF DD 71 F7         [19] 4740 	ld	-9 (ix), c
      001DE2 DD 70 F8         [19] 4741 	ld	-8 (ix), b
      001DE5 DD 73 F9         [19] 4742 	ld	-7 (ix), e
      001DE8 DD 72 FA         [19] 4743 	ld	-6 (ix), d
      001DEB CB 7A            [ 8] 4744 	bit	7, d
      001DED 28 18            [12] 4745 	jr	Z, 00142$
      001DEF 79               [ 4] 4746 	ld	a, c
      001DF0 C6 07            [ 7] 4747 	add	a, #0x07
      001DF2 DD 77 F7         [19] 4748 	ld	-9 (ix), a
      001DF5 78               [ 4] 4749 	ld	a, b
      001DF6 CE 00            [ 7] 4750 	adc	a, #0x00
      001DF8 DD 77 F8         [19] 4751 	ld	-8 (ix), a
      001DFB 7B               [ 4] 4752 	ld	a, e
      001DFC CE 00            [ 7] 4753 	adc	a, #0x00
      001DFE DD 77 F9         [19] 4754 	ld	-7 (ix), a
      001E01 7A               [ 4] 4755 	ld	a, d
      001E02 CE 00            [ 7] 4756 	adc	a, #0x00
      001E04 DD 77 FA         [19] 4757 	ld	-6 (ix), a
      001E07                       4758 00142$:
      001E07 DD 4E F7         [19] 4759 	ld	c, -9 (ix)
      001E0A DD 46 F8         [19] 4760 	ld	b, -8 (ix)
      001E0D CB 38            [ 8] 4761 	srl	b
      001E0F CB 19            [ 8] 4762 	rr	c
      001E11 CB 38            [ 8] 4763 	srl	b
      001E13 CB 19            [ 8] 4764 	rr	c
      001E15 CB 38            [ 8] 4765 	srl	b
      001E17 CB 19            [ 8] 4766 	rr	c
      001E19 DD 6E FB         [19] 4767 	ld	l, -5 (ix)
                                   4768 ;	spillPairReg hl
                                   4769 ;	spillPairReg hl
      001E1C 79               [ 4] 4770 	ld	a, c
      001E1D CDr1Er01         [17] 4771 	call	_get_tile
      001E20 DD 77 F6         [19] 4772 	ld	-10 (ix), a
                                   4773 ;pocket_platformer.c:752: unsigned char t2 = get_tile(
      001E23 DD 7E FB         [19] 4774 	ld	a, -5 (ix)
      001E26 DD 77 F7         [19] 4775 	ld	-9 (ix), a
      001E29 ED 4Br0Cr00      [20] 4776 	ld	bc, (#_player + 0)
      001E2D ED 5Br0Er00      [20] 4777 	ld	de, (#_player + 2)
      001E31 3E 08            [ 7] 4778 	ld	a, #0x08
      001E33                       4779 00345$:
      001E33 CB 2A            [ 8] 4780 	sra	d
      001E35 CB 1B            [ 8] 4781 	rr	e
      001E37 CB 18            [ 8] 4782 	rr	b
      001E39 CB 19            [ 8] 4783 	rr	c
      001E3B 3D               [ 4] 4784 	dec	a
      001E3C 20 F5            [12] 4785 	jr	NZ, 00345$
      001E3E DD 71 F8         [19] 4786 	ld	-8 (ix), c
      001E41 DD 70 F9         [19] 4787 	ld	-7 (ix), b
      001E44 DD 73 FA         [19] 4788 	ld	-6 (ix), e
      001E47 DD 72 FB         [19] 4789 	ld	-5 (ix), d
      001E4A CB 7A            [ 8] 4790 	bit	7, d
      001E4C 28 18            [12] 4791 	jr	Z, 00143$
      001E4E 79               [ 4] 4792 	ld	a, c
      001E4F C6 07            [ 7] 4793 	add	a, #0x07
      001E51 DD 77 F8         [19] 4794 	ld	-8 (ix), a
      001E54 78               [ 4] 4795 	ld	a, b
      001E55 CE 00            [ 7] 4796 	adc	a, #0x00
      001E57 DD 77 F9         [19] 4797 	ld	-7 (ix), a
      001E5A 7B               [ 4] 4798 	ld	a, e
      001E5B CE 00            [ 7] 4799 	adc	a, #0x00
      001E5D DD 77 FA         [19] 4800 	ld	-6 (ix), a
      001E60 7A               [ 4] 4801 	ld	a, d
      001E61 CE 00            [ 7] 4802 	adc	a, #0x00
      001E63 DD 77 FB         [19] 4803 	ld	-5 (ix), a
      001E66                       4804 00143$:
      001E66 DD 4E F8         [19] 4805 	ld	c, -8 (ix)
      001E69 DD 46 F9         [19] 4806 	ld	b, -7 (ix)
      001E6C CB 38            [ 8] 4807 	srl	b
      001E6E CB 19            [ 8] 4808 	rr	c
      001E70 CB 38            [ 8] 4809 	srl	b
      001E72 CB 19            [ 8] 4810 	rr	c
      001E74 CB 38            [ 8] 4811 	srl	b
      001E76 CB 19            [ 8] 4812 	rr	c
      001E78 0C               [ 4] 4813 	inc	c
      001E79 DD 6E F7         [19] 4814 	ld	l, -9 (ix)
                                   4815 ;	spillPairReg hl
                                   4816 ;	spillPairReg hl
      001E7C 79               [ 4] 4817 	ld	a, c
      001E7D CDr1Er01         [17] 4818 	call	_get_tile
      001E80 4F               [ 4] 4819 	ld	c, a
                                   4820 ;pocket_platformer.c:748: if (res_header->one_way_vram_idx) {
      001E81 FD 2Ar00r00      [20] 4821 	ld	iy, (_res_header)
                                   4822 ;pocket_platformer.c:755: unsigned char is_one_way =
      001E85 FD 46 06         [19] 4823 	ld	b, 6 (iy)
      001E88 DD 7E F6         [19] 4824 	ld	a, -10 (ix)
      001E8B 90               [ 4] 4825 	sub	a, b
      001E8C 28 07            [12] 4826 	jr	Z, 00145$
      001E8E 79               [ 4] 4827 	ld	a, c
      001E8F 90               [ 4] 4828 	sub	a, b
      001E90 28 03            [12] 4829 	jr	Z, 00145$
      001E92 AF               [ 4] 4830 	xor	a, a
      001E93 18 02            [12] 4831 	jr	00146$
      001E95                       4832 00145$:
      001E95 3E 01            [ 7] 4833 	ld	a, #0x01
      001E97                       4834 00146$:
                                   4835 ;pocket_platformer.c:758: if (is_one_way) {
      001E97 B7               [ 4] 4836 	or	a, a
      001E98 28 47            [12] 4837 	jr	Z, 00106$
                                   4838 ;pocket_platformer.c:759: long prev_feet = player.y + FP(PLAYER_H);
      001E9A ED 4Br10r00      [20] 4839 	ld	bc, (#(_player + 4) + 0)
      001E9E 2Ar12r00         [16] 4840 	ld	hl, (#(_player + 4) + 2)
      001EA1 DD 71 F8         [19] 4841 	ld	-8 (ix), c
      001EA4 78               [ 4] 4842 	ld	a, b
      001EA5 C6 08            [ 7] 4843 	add	a, #0x08
      001EA7 DD 77 F9         [19] 4844 	ld	-7 (ix), a
      001EAA 7D               [ 4] 4845 	ld	a, l
      001EAB CE 00            [ 7] 4846 	adc	a, #0x00
      001EAD DD 77 FA         [19] 4847 	ld	-6 (ix), a
      001EB0 7C               [ 4] 4848 	ld	a, h
      001EB1 CE 00            [ 7] 4849 	adc	a, #0x00
      001EB3 DD 77 FB         [19] 4850 	ld	-5 (ix), a
                                   4851 ;pocket_platformer.c:760: long tile_top  = tile_b * TILE_SIZE * FP_ONE;
      001EB6 DD 56 F2         [19] 4852 	ld	d, -14 (ix)
      001EB9 DD 6E F3         [19] 4853 	ld	l, -13 (ix)
                                   4854 ;	spillPairReg hl
                                   4855 ;	spillPairReg hl
      001EBC DD 66 F4         [19] 4856 	ld	h, -12 (ix)
                                   4857 ;	spillPairReg hl
                                   4858 ;	spillPairReg hl
      001EBF 1E 00            [ 7] 4859 	ld	e, #0x00
      001EC1 06 03            [ 7] 4860 	ld	b, #0x03
      001EC3                       4861 00349$:
      001EC3 CB 22            [ 8] 4862 	sla	d
      001EC5 ED 6A            [15] 4863 	adc	hl, hl
      001EC7 10 FA            [13] 4864 	djnz	00349$
                                   4865 ;pocket_platformer.c:761: if (prev_feet > tile_top) goto skip_land;
      001EC9 7B               [ 4] 4866 	ld	a, e
      001ECA DD 96 F8         [19] 4867 	sub	a, -8 (ix)
      001ECD 7A               [ 4] 4868 	ld	a, d
      001ECE DD 9E F9         [19] 4869 	sbc	a, -7 (ix)
      001ED1 7D               [ 4] 4870 	ld	a, l
      001ED2 DD 9E FA         [19] 4871 	sbc	a, -6 (ix)
      001ED5 7C               [ 4] 4872 	ld	a, h
      001ED6 DD 9E FB         [19] 4873 	sbc	a, -5 (ix)
      001ED9 E2rDEr1E         [10] 4874 	jp	PO, 00351$
      001EDC EE 80            [ 7] 4875 	xor	a, #0x80
      001EDE                       4876 00351$:
      001EDE FAr72r23         [10] 4877 	jp	M, 00132$
      001EE1                       4878 00106$:
                                   4879 ;pocket_platformer.c:764: new_y = (tile_b * TILE_SIZE - PLAYER_H) * FP_ONE;
      001EE1 DD 7E F2         [19] 4880 	ld	a, -14 (ix)
      001EE4 DD 5E F3         [19] 4881 	ld	e, -13 (ix)
      001EE7 DD 6E F4         [19] 4882 	ld	l, -12 (ix)
                                   4883 ;	spillPairReg hl
                                   4884 ;	spillPairReg hl
      001EEA DD 66 F5         [19] 4885 	ld	h, -11 (ix)
                                   4886 ;	spillPairReg hl
                                   4887 ;	spillPairReg hl
      001EED 06 03            [ 7] 4888 	ld	b, #0x03
      001EEF                       4889 00352$:
      001EEF 87               [ 4] 4890 	add	a, a
      001EF0 CB 13            [ 8] 4891 	rl	e
      001EF2 ED 6A            [15] 4892 	adc	hl, hl
      001EF4 10 F9            [13] 4893 	djnz	00352$
      001EF6 C6 F8            [ 7] 4894 	add	a, #0xf8
      001EF8 4F               [ 4] 4895 	ld	c, a
      001EF9 7B               [ 4] 4896 	ld	a, e
      001EFA CE FF            [ 7] 4897 	adc	a, #0xff
      001EFC 47               [ 4] 4898 	ld	b, a
      001EFD 7D               [ 4] 4899 	ld	a, l
      001EFE CE FF            [ 7] 4900 	adc	a, #0xff
      001F00 5F               [ 4] 4901 	ld	e, a
      001F01 7C               [ 4] 4902 	ld	a, h
      001F02 CE FF            [ 7] 4903 	adc	a, #0xff
      001F04 DD 71 FD         [19] 4904 	ld	-3 (ix), c
      001F07 DD 70 FE         [19] 4905 	ld	-2 (ix), b
      001F0A DD 73 FF         [19] 4906 	ld	-1 (ix), e
      001F0D DD 36 FC 00      [19] 4907 	ld	-4 (ix), #0x00
                                   4908 ;pocket_platformer.c:765: player.vy = 0;
      001F11 21 00 00         [10] 4909 	ld	hl, #0x0000
      001F14 22r18r00         [16] 4910 	ld	((_player + 12)), hl
      001F17 22r1Ar00         [16] 4911 	ld	((_player + 12)+2), hl
                                   4912 ;pocket_platformer.c:766: player.on_ground = 1;
      001F1A 21r1Cr00         [10] 4913 	ld	hl, #(_player + 16)
      001F1D 36 01            [10] 4914 	ld	(hl), #0x01
                                   4915 ;pocket_platformer.c:767: player.falling = 0;
      001F1F 21r1Dr00         [10] 4916 	ld	hl, #(_player + 17)
      001F22 36 00            [10] 4917 	ld	(hl), #0x00
                                   4918 ;pocket_platformer.c:768: player.jumping = 0;
      001F24 21r1Er00         [10] 4919 	ld	hl, #(_player + 18)
      001F27 36 00            [10] 4920 	ld	(hl), #0x00
                                   4921 ;pocket_platformer.c:769: player.wall_jumping = 0;
      001F29 21r1Fr00         [10] 4922 	ld	hl, #(_player + 19)
      001F2C 36 00            [10] 4923 	ld	(hl), #0x00
                                   4924 ;pocket_platformer.c:770: player.double_jump_used = 0;
      001F2E 21r24r00         [10] 4925 	ld	hl, #(_player + 24)
      001F31 36 00            [10] 4926 	ld	(hl), #0x00
                                   4927 ;pocket_platformer.c:771: skip_land:;
      001F33 C3r72r23         [10] 4928 	jp	00132$
      001F36                       4929 00131$:
                                   4930 ;pocket_platformer.c:774: if (is_solid_px(player.x + FP(1),            new_y) ||
      001F36 DD 6E FE         [19] 4931 	ld	l, -2 (ix)
                                   4932 ;	spillPairReg hl
                                   4933 ;	spillPairReg hl
      001F39 DD 66 FF         [19] 4934 	ld	h, -1 (ix)
                                   4935 ;	spillPairReg hl
                                   4936 ;	spillPairReg hl
      001F3C E5               [11] 4937 	push	hl
      001F3D DD 6E FC         [19] 4938 	ld	l, -4 (ix)
                                   4939 ;	spillPairReg hl
                                   4940 ;	spillPairReg hl
      001F40 DD 66 FD         [19] 4941 	ld	h, -3 (ix)
                                   4942 ;	spillPairReg hl
                                   4943 ;	spillPairReg hl
      001F43 E5               [11] 4944 	push	hl
      001F44 DD 5E F4         [19] 4945 	ld	e, -12 (ix)
      001F47 DD 56 F5         [19] 4946 	ld	d, -11 (ix)
      001F4A DD 6E F6         [19] 4947 	ld	l, -10 (ix)
                                   4948 ;	spillPairReg hl
                                   4949 ;	spillPairReg hl
      001F4D DD 66 F7         [19] 4950 	ld	h, -9 (ix)
                                   4951 ;	spillPairReg hl
                                   4952 ;	spillPairReg hl
      001F50 CDrA6r03         [17] 4953 	call	_is_solid_px
      001F53 B7               [ 4] 4954 	or	a, a
      001F54 20 23            [12] 4955 	jr	NZ, 00127$
                                   4956 ;pocket_platformer.c:775: is_solid_px(player.x + FP(PLAYER_W - 2), new_y)) {
      001F56 ED 5Br0Cr00      [20] 4957 	ld	de, (#_player + 0)
      001F5A 2Ar0Er00         [16] 4958 	ld	hl, (#_player + 2)
      001F5D 7A               [ 4] 4959 	ld	a, d
      001F5E C6 04            [ 7] 4960 	add	a, #0x04
      001F60 57               [ 4] 4961 	ld	d, a
      001F61 30 01            [12] 4962 	jr	NC, 00356$
      001F63 23               [ 6] 4963 	inc	hl
      001F64                       4964 00356$:
      001F64 DD 4E FE         [19] 4965 	ld	c, -2 (ix)
      001F67 DD 46 FF         [19] 4966 	ld	b, -1 (ix)
      001F6A C5               [11] 4967 	push	bc
      001F6B DD 4E FC         [19] 4968 	ld	c, -4 (ix)
      001F6E DD 46 FD         [19] 4969 	ld	b, -3 (ix)
      001F71 C5               [11] 4970 	push	bc
      001F72 CDrA6r03         [17] 4971 	call	_is_solid_px
      001F75 B7               [ 4] 4972 	or	a, a
      001F76 CAr72r23         [10] 4973 	jp	Z, 00132$
      001F79                       4974 00127$:
                                   4975 ;pocket_platformer.c:776: long tile_t = py / TILE_SIZE + 1;
      001F79 DD 6E F0         [19] 4976 	ld	l, -16 (ix)
                                   4977 ;	spillPairReg hl
                                   4978 ;	spillPairReg hl
      001F7C DD 66 F1         [19] 4979 	ld	h, -15 (ix)
                                   4980 ;	spillPairReg hl
                                   4981 ;	spillPairReg hl
      001F7F DD 5E F2         [19] 4982 	ld	e, -14 (ix)
      001F82 DD 56 F3         [19] 4983 	ld	d, -13 (ix)
      001F85 DD CB F3 7E      [20] 4984 	bit	7, -13 (ix)
      001F89 28 18            [12] 4985 	jr	Z, 00147$
      001F8B DD 7E F0         [19] 4986 	ld	a, -16 (ix)
      001F8E C6 07            [ 7] 4987 	add	a, #0x07
      001F90 6F               [ 4] 4988 	ld	l, a
                                   4989 ;	spillPairReg hl
                                   4990 ;	spillPairReg hl
      001F91 DD 7E F1         [19] 4991 	ld	a, -15 (ix)
      001F94 CE 00            [ 7] 4992 	adc	a, #0x00
      001F96 67               [ 4] 4993 	ld	h, a
                                   4994 ;	spillPairReg hl
                                   4995 ;	spillPairReg hl
      001F97 DD 7E F2         [19] 4996 	ld	a, -14 (ix)
      001F9A CE 00            [ 7] 4997 	adc	a, #0x00
      001F9C 5F               [ 4] 4998 	ld	e, a
      001F9D DD 7E F3         [19] 4999 	ld	a, -13 (ix)
      001FA0 CE 00            [ 7] 5000 	adc	a, #0x00
      001FA2 57               [ 4] 5001 	ld	d, a
      001FA3                       5002 00147$:
      001FA3 06 03            [ 7] 5003 	ld	b, #0x03
      001FA5                       5004 00357$:
      001FA5 CB 2A            [ 8] 5005 	sra	d
      001FA7 CB 1B            [ 8] 5006 	rr	e
      001FA9 CB 1C            [ 8] 5007 	rr	h
      001FAB CB 1D            [ 8] 5008 	rr	l
      001FAD 10 F6            [13] 5009 	djnz	00357$
      001FAF 7D               [ 4] 5010 	ld	a, l
      001FB0 C6 01            [ 7] 5011 	add	a, #0x01
      001FB2 DD 77 E3         [19] 5012 	ld	-29 (ix), a
      001FB5 7C               [ 4] 5013 	ld	a, h
      001FB6 CE 00            [ 7] 5014 	adc	a, #0x00
      001FB8 DD 77 E4         [19] 5015 	ld	-28 (ix), a
      001FBB 7B               [ 4] 5016 	ld	a, e
      001FBC CE 00            [ 7] 5017 	adc	a, #0x00
      001FBE DD 77 E5         [19] 5018 	ld	-27 (ix), a
      001FC1 7A               [ 4] 5019 	ld	a, d
      001FC2 CE 00            [ 7] 5020 	adc	a, #0x00
      001FC4 DD 77 E6         [19] 5021 	ld	-26 (ix), a
                                   5022 ;pocket_platformer.c:779: if (!rb_switch_locked && res_header->switch_vram_idx) {
      001FC7 3ArE7r01         [13] 5023 	ld	a, (_rb_switch_locked+0)
      001FCA B7               [ 4] 5024 	or	a, a
      001FCB C2r2Er23         [10] 5025 	jp	NZ, 00125$
      001FCE 2Ar00r00         [16] 5026 	ld	hl, (_res_header)
      001FD1 11 0D 00         [10] 5027 	ld	de, #0x000d
      001FD4 19               [11] 5028 	add	hl, de
      001FD5 7E               [ 7] 5029 	ld	a, (hl)
      001FD6 B7               [ 4] 5030 	or	a, a
      001FD7 CAr2Er23         [10] 5031 	jp	Z, 00125$
                                   5032 ;pocket_platformer.c:780: unsigned char htx_l = (unsigned char)((player.x >> 8) / TILE_SIZE);
      001FDA ED 4Br0Cr00      [20] 5033 	ld	bc, (#_player + 0)
      001FDE ED 5Br0Er00      [20] 5034 	ld	de, (#_player + 2)
      001FE2 3E 08            [ 7] 5035 	ld	a, #0x08
      001FE4                       5036 00359$:
      001FE4 CB 2A            [ 8] 5037 	sra	d
      001FE6 CB 1B            [ 8] 5038 	rr	e
      001FE8 CB 18            [ 8] 5039 	rr	b
      001FEA CB 19            [ 8] 5040 	rr	c
      001FEC 3D               [ 4] 5041 	dec	a
      001FED 20 F5            [12] 5042 	jr	NZ, 00359$
      001FEF DD 71 FC         [19] 5043 	ld	-4 (ix), c
      001FF2 DD 70 FD         [19] 5044 	ld	-3 (ix), b
      001FF5 DD 73 FE         [19] 5045 	ld	-2 (ix), e
      001FF8 DD 72 FF         [19] 5046 	ld	-1 (ix), d
      001FFB CB 7A            [ 8] 5047 	bit	7, d
      001FFD 28 18            [12] 5048 	jr	Z, 00148$
      001FFF 79               [ 4] 5049 	ld	a, c
      002000 C6 07            [ 7] 5050 	add	a, #0x07
      002002 DD 77 FC         [19] 5051 	ld	-4 (ix), a
      002005 78               [ 4] 5052 	ld	a, b
      002006 CE 00            [ 7] 5053 	adc	a, #0x00
      002008 DD 77 FD         [19] 5054 	ld	-3 (ix), a
      00200B 7B               [ 4] 5055 	ld	a, e
      00200C CE 00            [ 7] 5056 	adc	a, #0x00
      00200E DD 77 FE         [19] 5057 	ld	-2 (ix), a
      002011 7A               [ 4] 5058 	ld	a, d
      002012 CE 00            [ 7] 5059 	adc	a, #0x00
      002014 DD 77 FF         [19] 5060 	ld	-1 (ix), a
      002017                       5061 00148$:
      002017 DD 6E FC         [19] 5062 	ld	l, -4 (ix)
                                   5063 ;	spillPairReg hl
                                   5064 ;	spillPairReg hl
      00201A DD 66 FD         [19] 5065 	ld	h, -3 (ix)
                                   5066 ;	spillPairReg hl
                                   5067 ;	spillPairReg hl
      00201D CB 3C            [ 8] 5068 	srl	h
      00201F CB 1D            [ 8] 5069 	rr	l
      002021 CB 3C            [ 8] 5070 	srl	h
      002023 CB 1D            [ 8] 5071 	rr	l
      002025 CB 3C            [ 8] 5072 	srl	h
      002027 CB 1D            [ 8] 5073 	rr	l
      002029 65               [ 4] 5074 	ld	h, l
                                   5075 ;	spillPairReg hl
                                   5076 ;	spillPairReg hl
                                   5077 ;pocket_platformer.c:781: unsigned char htx_r = (unsigned char)(((player.x >> 8) + PLAYER_W) / TILE_SIZE);
      00202A 79               [ 4] 5078 	ld	a, c
      00202B C6 06            [ 7] 5079 	add	a, #0x06
      00202D DD 77 F4         [19] 5080 	ld	-12 (ix), a
      002030 78               [ 4] 5081 	ld	a, b
      002031 CE 00            [ 7] 5082 	adc	a, #0x00
      002033 DD 77 F5         [19] 5083 	ld	-11 (ix), a
      002036 7B               [ 4] 5084 	ld	a, e
      002037 CE 00            [ 7] 5085 	adc	a, #0x00
      002039 DD 77 F6         [19] 5086 	ld	-10 (ix), a
      00203C 7A               [ 4] 5087 	ld	a, d
      00203D CE 00            [ 7] 5088 	adc	a, #0x00
      00203F DD 77 F7         [19] 5089 	ld	-9 (ix), a
      002042 DD 7E F4         [19] 5090 	ld	a, -12 (ix)
      002045 DD 77 FC         [19] 5091 	ld	-4 (ix), a
      002048 DD 7E F5         [19] 5092 	ld	a, -11 (ix)
      00204B DD 77 FD         [19] 5093 	ld	-3 (ix), a
      00204E DD 7E F6         [19] 5094 	ld	a, -10 (ix)
      002051 DD 77 FE         [19] 5095 	ld	-2 (ix), a
      002054 DD 7E F7         [19] 5096 	ld	a, -9 (ix)
      002057 DD 77 FF         [19] 5097 	ld	-1 (ix), a
      00205A DD CB F7 7E      [20] 5098 	bit	7, -9 (ix)
      00205E 28 18            [12] 5099 	jr	Z, 00149$
      002060 79               [ 4] 5100 	ld	a, c
      002061 C6 0D            [ 7] 5101 	add	a, #0x0d
      002063 DD 77 FC         [19] 5102 	ld	-4 (ix), a
      002066 78               [ 4] 5103 	ld	a, b
      002067 CE 00            [ 7] 5104 	adc	a, #0x00
      002069 DD 77 FD         [19] 5105 	ld	-3 (ix), a
      00206C 7B               [ 4] 5106 	ld	a, e
      00206D CE 00            [ 7] 5107 	adc	a, #0x00
      00206F DD 77 FE         [19] 5108 	ld	-2 (ix), a
      002072 7A               [ 4] 5109 	ld	a, d
      002073 CE 00            [ 7] 5110 	adc	a, #0x00
      002075 DD 77 FF         [19] 5111 	ld	-1 (ix), a
      002078                       5112 00149$:
      002078 DD 4E FC         [19] 5113 	ld	c, -4 (ix)
      00207B DD 46 FD         [19] 5114 	ld	b, -3 (ix)
      00207E CB 38            [ 8] 5115 	srl	b
      002080 CB 19            [ 8] 5116 	rr	c
      002082 CB 38            [ 8] 5117 	srl	b
      002084 CB 19            [ 8] 5118 	rr	c
      002086 CB 38            [ 8] 5119 	srl	b
      002088 CB 19            [ 8] 5120 	rr	c
                                   5121 ;pocket_platformer.c:782: unsigned char hty   = (unsigned char)(tile_t - 1);  /* ceiling row */
      00208A DD 7E E3         [19] 5122 	ld	a, -29 (ix)
      00208D 3D               [ 4] 5123 	dec	a
      00208E 47               [ 4] 5124 	ld	b, a
                                   5125 ;pocket_platformer.c:783: unsigned char tl = get_tile(htx_l, hty);
      00208F C5               [11] 5126 	push	bc
      002090 68               [ 4] 5127 	ld	l, b
                                   5128 ;	spillPairReg hl
                                   5129 ;	spillPairReg hl
      002091 7C               [ 4] 5130 	ld	a, h
      002092 CDr1Er01         [17] 5131 	call	_get_tile
      002095 C1               [10] 5132 	pop	bc
      002096 DD 77 FF         [19] 5133 	ld	-1 (ix), a
                                   5134 ;pocket_platformer.c:784: unsigned char tr = get_tile(htx_r, hty);
      002099 68               [ 4] 5135 	ld	l, b
                                   5136 ;	spillPairReg hl
                                   5137 ;	spillPairReg hl
      00209A 79               [ 4] 5138 	ld	a, c
      00209B CDr1Er01         [17] 5139 	call	_get_tile
      00209E 4F               [ 4] 5140 	ld	c, a
                                   5141 ;pocket_platformer.c:748: if (res_header->one_way_vram_idx) {
      00209F FD 2Ar00r00      [20] 5142 	ld	iy, (_res_header)
                                   5143 ;pocket_platformer.c:785: if ((tl == res_header->switch_vram_idx || tl == res_header->switch_blue_vram_idx ||
      0020A3 FD E5            [15] 5144 	push	iy
      0020A5 D1               [10] 5145 	pop	de
      0020A6 21 0D 00         [10] 5146 	ld	hl, #13
      0020A9 19               [11] 5147 	add	hl, de
      0020AA 5E               [ 7] 5148 	ld	e, (hl)
      0020AB DD 7E FF         [19] 5149 	ld	a, -1 (ix)
      0020AE 93               [ 4] 5150 	sub	a, e
      0020AF 28 11            [12] 5151 	jr	Z, 00119$
      0020B1 FD 46 0E         [19] 5152 	ld	b, 14 (iy)
      0020B4 DD 7E FF         [19] 5153 	ld	a, -1 (ix)
      0020B7 90               [ 4] 5154 	sub	a, b
      0020B8 28 08            [12] 5155 	jr	Z, 00119$
                                   5156 ;pocket_platformer.c:786: tr == res_header->switch_vram_idx || tr == res_header->switch_blue_vram_idx)) {
      0020BA 79               [ 4] 5157 	ld	a,c
      0020BB BB               [ 4] 5158 	cp	a,e
      0020BC 28 04            [12] 5159 	jr	Z, 00119$
      0020BE 90               [ 4] 5160 	sub	a, b
      0020BF C2r2Er23         [10] 5161 	jp	NZ,00125$
      0020C2                       5162 00119$:
                                   5163 ;pocket_platformer.c:788: rb_red_active = !rb_red_active;
      0020C2 3ArE6r01         [13] 5164 	ld	a, (_rb_red_active+0)
      0020C5 D6 01            [ 7] 5165 	sub	a,#0x01
      0020C7 3E 00            [ 7] 5166 	ld	a, #0x00
      0020C9 17               [ 4] 5167 	rla
      0020CA 32rE6r01         [13] 5168 	ld	(_rb_red_active+0), a
                                   5169 ;pocket_platformer.c:789: rb_redraw_all();
      0020CD CDr11r2A         [17] 5170 	call	_rb_redraw_all
                                   5171 ;pocket_platformer.c:748: if (res_header->one_way_vram_idx) {
      0020D0 2Ar00r00         [16] 5172 	ld	hl, (_res_header)
      0020D3 DD 75 FE         [19] 5173 	ld	-2 (ix), l
      0020D6 DD 74 FF         [19] 5174 	ld	-1 (ix), h
                                   5175 ;pocket_platformer.c:792: unsigned char sw_idx = rb_red_active
      0020D9 3ArE6r01         [13] 5176 	ld	a, (_rb_red_active+0)
      0020DC B7               [ 4] 5177 	or	a, a
      0020DD 28 0D            [12] 5178 	jr	Z, 00150$
      0020DF DD 4E FE         [19] 5179 	ld	c, -2 (ix)
      0020E2 DD 46 FF         [19] 5180 	ld	b, -1 (ix)
      0020E5 21 0D 00         [10] 5181 	ld	hl, #13
      0020E8 09               [11] 5182 	add	hl, bc
      0020E9 4E               [ 7] 5183 	ld	c, (hl)
      0020EA 18 0B            [12] 5184 	jr	00151$
      0020EC                       5185 00150$:
      0020EC DD 6E FE         [19] 5186 	ld	l, -2 (ix)
      0020EF DD 66 FF         [19] 5187 	ld	h, -1 (ix)
      0020F2 11 0E 00         [10] 5188 	ld	de, #0x000e
      0020F5 19               [11] 5189 	add	hl, de
      0020F6 4E               [ 7] 5190 	ld	c, (hl)
      0020F7                       5191 00151$:
      0020F7 41               [ 4] 5192 	ld	b, c
                                   5193 ;pocket_platformer.c:795: unsigned int sw_vt = sw_idx
      0020F8 79               [ 4] 5194 	ld	a, c
      0020F9 B7               [ 4] 5195 	or	a, a
      0020FA 28 05            [12] 5196 	jr	Z, 00152$
      0020FC 48               [ 4] 5197 	ld	c, b
      0020FD 06 00            [ 7] 5198 	ld	b, #0x00
      0020FF 18 03            [12] 5199 	jr	00153$
      002101                       5200 00152$:
      002101 01 00 00         [10] 5201 	ld	bc, #0x0000
      002104                       5202 00153$:
                                   5203 ;pocket_platformer.c:797: for (si = 0; si < rb_switch_count; si++) {
      002104 1E 00            [ 7] 5204 	ld	e, #0x00
      002106                       5205 00134$:
      002106 21rE5r01         [10] 5206 	ld	hl, #_rb_switch_count
      002109 7B               [ 4] 5207 	ld	a, e
      00210A 96               [ 7] 5208 	sub	a, (hl)
      00210B 30 3A            [12] 5209 	jr	NC, 00111$
                                   5210 ;pocket_platformer.c:798: SMS_setNextTileatXY(rb_switches[si].tx % SCREEN_TILES_W,
      00210D 6B               [ 4] 5211 	ld	l, e
                                   5212 ;	spillPairReg hl
                                   5213 ;	spillPairReg hl
      00210E 26 00            [ 7] 5214 	ld	h, #0x00
                                   5215 ;	spillPairReg hl
                                   5216 ;	spillPairReg hl
      002110 29               [11] 5217 	add	hl, hl
      002111 FD 21rD4r01      [14] 5218 	ld	iy, #_rb_switches
      002115 C5               [11] 5219 	push	bc
      002116 4D               [ 4] 5220 	ld	c, l
      002117 44               [ 4] 5221 	ld	b, h
      002118 FD 09            [15] 5222 	add	iy, bc
      00211A C1               [10] 5223 	pop	bc
      00211B FD E5            [15] 5224 	push	iy
      00211D E1               [10] 5225 	pop	hl
      00211E 23               [ 6] 5226 	inc	hl
      00211F 6E               [ 7] 5227 	ld	l, (hl)
                                   5228 ;	spillPairReg hl
      002120 26 00            [ 7] 5229 	ld	h, #0x00
                                   5230 ;	spillPairReg hl
                                   5231 ;	spillPairReg hl
      002122 29               [11] 5232 	add	hl, hl
      002123 29               [11] 5233 	add	hl, hl
      002124 29               [11] 5234 	add	hl, hl
      002125 29               [11] 5235 	add	hl, hl
      002126 29               [11] 5236 	add	hl, hl
      002127 7D               [ 4] 5237 	ld	a, l
      002128 54               [ 4] 5238 	ld	d, h
      002129 FD 6E 00         [19] 5239 	ld	l, 0 (iy)
                                   5240 ;	spillPairReg hl
      00212C F5               [11] 5241 	push	af
      00212D 7D               [ 4] 5242 	ld	a, l
      00212E E6 1F            [ 7] 5243 	and	a, #0x1f
      002130 6F               [ 4] 5244 	ld	l, a
                                   5245 ;	spillPairReg hl
                                   5246 ;	spillPairReg hl
      002131 F1               [10] 5247 	pop	af
      002132 26 00            [ 7] 5248 	ld	h, #0x00
                                   5249 ;	spillPairReg hl
                                   5250 ;	spillPairReg hl
      002134 85               [ 4] 5251 	add	a, l
      002135 6F               [ 4] 5252 	ld	l, a
                                   5253 ;	spillPairReg hl
                                   5254 ;	spillPairReg hl
      002136 7A               [ 4] 5255 	ld	a, d
      002137 8C               [ 4] 5256 	adc	a, h
      002138 CB 25            [ 8] 5257 	sla	l
      00213A 8F               [ 4] 5258 	adc	a, a
      00213B F6 78            [ 7] 5259 	or	a, #0x78
      00213D 67               [ 4] 5260 	ld	h, a
                                   5261 ;	spillPairReg hl
                                   5262 ;	spillPairReg hl
      00213E C5               [11] 5263 	push	bc
      00213F CF               [11] 5264 	rst	#0x08
      002140 C1               [10] 5265 	pop	bc
                                   5266 ;pocket_platformer.c:800: SMS_setTile(sw_vt);
      002141 69               [ 4] 5267 	ld	l, c
                                   5268 ;	spillPairReg hl
                                   5269 ;	spillPairReg hl
      002142 60               [ 4] 5270 	ld	h, b
                                   5271 ;	spillPairReg hl
                                   5272 ;	spillPairReg hl
      002143 DF               [11] 5273 	rst	#0x18
                                   5274 ;pocket_platformer.c:797: for (si = 0; si < rb_switch_count; si++) {
      002144 1C               [ 4] 5275 	inc	e
      002145 18 BF            [12] 5276 	jr	00134$
      002147                       5277 00111$:
                                   5278 ;pocket_platformer.c:806: long ppx = player.x >> 8, ppy = new_y >> 8;
      002147 ED 4Br0Cr00      [20] 5279 	ld	bc, (#_player + 0)
      00214B ED 5Br0Er00      [20] 5280 	ld	de, (#_player + 2)
      00214F 3E 08            [ 7] 5281 	ld	a, #0x08
      002151                       5282 00367$:
      002151 CB 2A            [ 8] 5283 	sra	d
      002153 CB 1B            [ 8] 5284 	rr	e
      002155 CB 18            [ 8] 5285 	rr	b
      002157 CB 19            [ 8] 5286 	rr	c
      002159 3D               [ 4] 5287 	dec	a
      00215A 20 F5            [12] 5288 	jr	NZ, 00367$
      00215C DD 7E F8         [19] 5289 	ld	a, -8 (ix)
      00215F DD 77 E7         [19] 5290 	ld	-25 (ix), a
      002162 DD 7E F9         [19] 5291 	ld	a, -7 (ix)
      002165 DD 77 E8         [19] 5292 	ld	-24 (ix), a
      002168 DD 7E FA         [19] 5293 	ld	a, -6 (ix)
      00216B DD 77 E9         [19] 5294 	ld	-23 (ix), a
      00216E DD 7E FB         [19] 5295 	ld	a, -5 (ix)
      002171 DD 77 EA         [19] 5296 	ld	-22 (ix), a
                                   5297 ;pocket_platformer.c:807: for (b = 0; b < rb_block_count; b++) {
      002174 DD 7E F8         [19] 5298 	ld	a, -8 (ix)
      002177 C6 08            [ 7] 5299 	add	a, #0x08
      002179 DD 77 EB         [19] 5300 	ld	-21 (ix), a
      00217C DD 7E F9         [19] 5301 	ld	a, -7 (ix)
      00217F CE 00            [ 7] 5302 	adc	a, #0x00
      002181 DD 77 EC         [19] 5303 	ld	-20 (ix), a
      002184 DD 7E FA         [19] 5304 	ld	a, -6 (ix)
      002187 CE 00            [ 7] 5305 	adc	a, #0x00
      002189 DD 77 ED         [19] 5306 	ld	-19 (ix), a
      00218C DD 7E FB         [19] 5307 	ld	a, -5 (ix)
      00218F CE 00            [ 7] 5308 	adc	a, #0x00
      002191 DD 77 EE         [19] 5309 	ld	-18 (ix), a
      002194 79               [ 4] 5310 	ld	a, c
      002195 C6 06            [ 7] 5311 	add	a, #0x06
      002197 DD 77 EF         [19] 5312 	ld	-17 (ix), a
      00219A 78               [ 4] 5313 	ld	a, b
      00219B CE 00            [ 7] 5314 	adc	a, #0x00
      00219D DD 77 F0         [19] 5315 	ld	-16 (ix), a
      0021A0 7B               [ 4] 5316 	ld	a, e
      0021A1 CE 00            [ 7] 5317 	adc	a, #0x00
      0021A3 DD 77 F1         [19] 5318 	ld	-15 (ix), a
      0021A6 7A               [ 4] 5319 	ld	a, d
      0021A7 CE 00            [ 7] 5320 	adc	a, #0x00
      0021A9 DD 77 F2         [19] 5321 	ld	-14 (ix), a
      0021AC DD 36 FF 00      [19] 5322 	ld	-1 (ix), #0x00
      0021B0                       5323 00137$:
      0021B0 21rE4r01         [10] 5324 	ld	hl, #_rb_block_count
      0021B3 DD 7E FF         [19] 5325 	ld	a, -1 (ix)
      0021B6 96               [ 7] 5326 	sub	a, (hl)
      0021B7 D2r29r23         [10] 5327 	jp	NC, 00118$
                                   5328 ;pocket_platformer.c:808: long bx = (long)rb_blocks[b].tx * TILE_SIZE;
      0021BA D5               [11] 5329 	push	de
      0021BB DD 5E FF         [19] 5330 	ld	e, -1 (ix)
      0021BE 16 00            [ 7] 5331 	ld	d, #0x00
      0021C0 6B               [ 4] 5332 	ld	l, e
      0021C1 62               [ 4] 5333 	ld	h, d
      0021C2 29               [11] 5334 	add	hl, hl
      0021C3 19               [11] 5335 	add	hl, de
      0021C4 D1               [10] 5336 	pop	de
      0021C5 FD 21r44r01      [14] 5337 	ld	iy, #_rb_blocks
      0021C9 C5               [11] 5338 	push	bc
      0021CA 4D               [ 4] 5339 	ld	c, l
      0021CB 44               [ 4] 5340 	ld	b, h
      0021CC FD 09            [15] 5341 	add	iy, bc
      0021CE C1               [10] 5342 	pop	bc
      0021CF FD 7E 00         [19] 5343 	ld	a, 0 (iy)
      0021D2 DD 77 FB         [19] 5344 	ld	-5 (ix), a
      0021D5 AF               [ 4] 5345 	xor	a, a
      0021D6 DD 77 FC         [19] 5346 	ld	-4 (ix), a
      0021D9 DD 77 FD         [19] 5347 	ld	-3 (ix), a
      0021DC DD 77 FE         [19] 5348 	ld	-2 (ix), a
      0021DF F5               [11] 5349 	push	af
      0021E0 DD 7E FB         [19] 5350 	ld	a, -5 (ix)
      0021E3 DD 77 F3         [19] 5351 	ld	-13 (ix), a
      0021E6 DD 7E FC         [19] 5352 	ld	a, -4 (ix)
      0021E9 DD 77 F4         [19] 5353 	ld	-12 (ix), a
      0021EC DD 7E FD         [19] 5354 	ld	a, -3 (ix)
      0021EF DD 77 F5         [19] 5355 	ld	-11 (ix), a
      0021F2 DD 7E FE         [19] 5356 	ld	a, -2 (ix)
      0021F5 DD 77 F6         [19] 5357 	ld	-10 (ix), a
      0021F8 F1               [10] 5358 	pop	af
      0021F9 3E 03            [ 7] 5359 	ld	a, #0x03
      0021FB                       5360 00369$:
      0021FB DD CB F3 26      [23] 5361 	sla	-13 (ix)
      0021FF DD CB F4 16      [23] 5362 	rl	-12 (ix)
      002203 DD CB F5 16      [23] 5363 	rl	-11 (ix)
      002207 DD CB F6 16      [23] 5364 	rl	-10 (ix)
      00220B 3D               [ 4] 5365 	dec	a
      00220C 20 ED            [12] 5366 	jr	NZ,00369$
                                   5367 ;pocket_platformer.c:809: long by = (long)rb_blocks[b].ty * TILE_SIZE;
      00220E FD E5            [15] 5368 	push	iy
      002210 E1               [10] 5369 	pop	hl
      002211 23               [ 6] 5370 	inc	hl
      002212 7E               [ 7] 5371 	ld	a, (hl)
      002213 DD 77 FB         [19] 5372 	ld	-5 (ix), a
      002216 AF               [ 4] 5373 	xor	a, a
      002217 DD 77 FC         [19] 5374 	ld	-4 (ix), a
      00221A DD 77 FD         [19] 5375 	ld	-3 (ix), a
      00221D DD 77 FE         [19] 5376 	ld	-2 (ix), a
      002220 F5               [11] 5377 	push	af
      002221 DD 7E FB         [19] 5378 	ld	a, -5 (ix)
      002224 DD 77 F7         [19] 5379 	ld	-9 (ix), a
      002227 DD 7E FC         [19] 5380 	ld	a, -4 (ix)
      00222A DD 77 F8         [19] 5381 	ld	-8 (ix), a
      00222D DD 7E FD         [19] 5382 	ld	a, -3 (ix)
      002230 DD 77 F9         [19] 5383 	ld	-7 (ix), a
      002233 DD 7E FE         [19] 5384 	ld	a, -2 (ix)
      002236 DD 77 FA         [19] 5385 	ld	-6 (ix), a
      002239 F1               [10] 5386 	pop	af
      00223A 3E 03            [ 7] 5387 	ld	a, #0x03
      00223C                       5388 00371$:
      00223C DD CB F7 26      [23] 5389 	sla	-9 (ix)
      002240 DD CB F8 16      [23] 5390 	rl	-8 (ix)
      002244 DD CB F9 16      [23] 5391 	rl	-7 (ix)
      002248 DD CB FA 16      [23] 5392 	rl	-6 (ix)
      00224C 3D               [ 4] 5393 	dec	a
      00224D 20 ED            [12] 5394 	jr	NZ,00371$
                                   5395 ;pocket_platformer.c:810: unsigned char solid = rb_blocks[b].is_red ? rb_red_active : !rb_red_active;
      00224F FD 7E 02         [19] 5396 	ld	a, 2 (iy)
      002252 B7               [ 4] 5397 	or	a, a
      002253 28 05            [12] 5398 	jr	Z, 00154$
      002255 3ArE6r01         [13] 5399 	ld	a, (_rb_red_active+0)
      002258 18 08            [12] 5400 	jr	00155$
      00225A                       5401 00154$:
      00225A 3ArE6r01         [13] 5402 	ld	a, (_rb_red_active+0)
      00225D D6 01            [ 7] 5403 	sub	a,#0x01
      00225F 3E 00            [ 7] 5404 	ld	a, #0x00
      002261 17               [ 4] 5405 	rla
      002262                       5406 00155$:
                                   5407 ;pocket_platformer.c:811: if (solid &&
      002262 B7               [ 4] 5408 	or	a, a
      002263 CAr23r23         [10] 5409 	jp	Z, 00138$
                                   5410 ;pocket_platformer.c:812: ppx + PLAYER_W > bx && ppx < bx + TILE_SIZE &&
      002266 DD 7E F3         [19] 5411 	ld	a, -13 (ix)
      002269 DD 96 EF         [19] 5412 	sub	a, -17 (ix)
      00226C DD 7E F4         [19] 5413 	ld	a, -12 (ix)
      00226F DD 9E F0         [19] 5414 	sbc	a, -16 (ix)
      002272 DD 7E F5         [19] 5415 	ld	a, -11 (ix)
      002275 DD 9E F1         [19] 5416 	sbc	a, -15 (ix)
      002278 DD 7E F6         [19] 5417 	ld	a, -10 (ix)
      00227B DD 9E F2         [19] 5418 	sbc	a, -14 (ix)
      00227E E2r83r22         [10] 5419 	jp	PO, 00373$
      002281 EE 80            [ 7] 5420 	xor	a, #0x80
      002283                       5421 00373$:
      002283 F2r23r23         [10] 5422 	jp	P, 00138$
      002286 DD 7E F3         [19] 5423 	ld	a, -13 (ix)
      002289 C6 08            [ 7] 5424 	add	a, #0x08
      00228B DD 77 FB         [19] 5425 	ld	-5 (ix), a
      00228E DD 7E F4         [19] 5426 	ld	a, -12 (ix)
      002291 CE 00            [ 7] 5427 	adc	a, #0x00
      002293 DD 77 FC         [19] 5428 	ld	-4 (ix), a
      002296 DD 7E F5         [19] 5429 	ld	a, -11 (ix)
      002299 CE 00            [ 7] 5430 	adc	a, #0x00
      00229B DD 77 FD         [19] 5431 	ld	-3 (ix), a
      00229E DD 7E F6         [19] 5432 	ld	a, -10 (ix)
      0022A1 CE 00            [ 7] 5433 	adc	a, #0x00
      0022A3 DD 77 FE         [19] 5434 	ld	-2 (ix), a
      0022A6 79               [ 4] 5435 	ld	a, c
      0022A7 DD 96 FB         [19] 5436 	sub	a, -5 (ix)
      0022AA 78               [ 4] 5437 	ld	a, b
      0022AB DD 9E FC         [19] 5438 	sbc	a, -4 (ix)
      0022AE 7B               [ 4] 5439 	ld	a, e
      0022AF DD 9E FD         [19] 5440 	sbc	a, -3 (ix)
      0022B2 7A               [ 4] 5441 	ld	a, d
      0022B3 DD 9E FE         [19] 5442 	sbc	a, -2 (ix)
      0022B6 E2rBBr22         [10] 5443 	jp	PO, 00374$
      0022B9 EE 80            [ 7] 5444 	xor	a, #0x80
      0022BB                       5445 00374$:
      0022BB F2r23r23         [10] 5446 	jp	P, 00138$
                                   5447 ;pocket_platformer.c:813: ppy + PLAYER_H > by && ppy < by + TILE_SIZE)
      0022BE DD 7E F7         [19] 5448 	ld	a, -9 (ix)
      0022C1 DD 96 EB         [19] 5449 	sub	a, -21 (ix)
      0022C4 DD 7E F8         [19] 5450 	ld	a, -8 (ix)
      0022C7 DD 9E EC         [19] 5451 	sbc	a, -20 (ix)
      0022CA DD 7E F9         [19] 5452 	ld	a, -7 (ix)
      0022CD DD 9E ED         [19] 5453 	sbc	a, -19 (ix)
      0022D0 DD 7E FA         [19] 5454 	ld	a, -6 (ix)
      0022D3 DD 9E EE         [19] 5455 	sbc	a, -18 (ix)
      0022D6 E2rDBr22         [10] 5456 	jp	PO, 00375$
      0022D9 EE 80            [ 7] 5457 	xor	a, #0x80
      0022DB                       5458 00375$:
      0022DB F2r23r23         [10] 5459 	jp	P, 00138$
      0022DE DD 7E F7         [19] 5460 	ld	a, -9 (ix)
      0022E1 C6 08            [ 7] 5461 	add	a, #0x08
      0022E3 DD 77 FB         [19] 5462 	ld	-5 (ix), a
      0022E6 DD 7E F8         [19] 5463 	ld	a, -8 (ix)
      0022E9 CE 00            [ 7] 5464 	adc	a, #0x00
      0022EB DD 77 FC         [19] 5465 	ld	-4 (ix), a
      0022EE DD 7E F9         [19] 5466 	ld	a, -7 (ix)
      0022F1 CE 00            [ 7] 5467 	adc	a, #0x00
      0022F3 DD 77 FD         [19] 5468 	ld	-3 (ix), a
      0022F6 DD 7E FA         [19] 5469 	ld	a, -6 (ix)
      0022F9 CE 00            [ 7] 5470 	adc	a, #0x00
      0022FB DD 77 FE         [19] 5471 	ld	-2 (ix), a
      0022FE DD 7E E7         [19] 5472 	ld	a, -25 (ix)
      002301 DD 96 FB         [19] 5473 	sub	a, -5 (ix)
      002304 DD 7E E8         [19] 5474 	ld	a, -24 (ix)
      002307 DD 9E FC         [19] 5475 	sbc	a, -4 (ix)
      00230A DD 7E E9         [19] 5476 	ld	a, -23 (ix)
      00230D DD 9E FD         [19] 5477 	sbc	a, -3 (ix)
      002310 DD 7E EA         [19] 5478 	ld	a, -22 (ix)
      002313 DD 9E FE         [19] 5479 	sbc	a, -2 (ix)
      002316 E2r1Br23         [10] 5480 	jp	PO, 00376$
      002319 EE 80            [ 7] 5481 	xor	a, #0x80
      00231B                       5482 00376$:
      00231B F2r23r23         [10] 5483 	jp	P, 00138$
                                   5484 ;pocket_platformer.c:814: player_died = 1;
      00231E 21rB1r00         [10] 5485 	ld	hl, #_player_died
      002321 36 01            [10] 5486 	ld	(hl), #0x01
      002323                       5487 00138$:
                                   5488 ;pocket_platformer.c:807: for (b = 0; b < rb_block_count; b++) {
      002323 DD 34 FF         [23] 5489 	inc	-1 (ix)
      002326 C3rB0r21         [10] 5490 	jp	00137$
      002329                       5491 00118$:
                                   5492 ;pocket_platformer.c:817: rb_switch_locked = 1;
      002329 21rE7r01         [10] 5493 	ld	hl, #_rb_switch_locked
      00232C 36 01            [10] 5494 	ld	(hl), #0x01
      00232E                       5495 00125$:
                                   5496 ;pocket_platformer.c:820: new_y = tile_t * TILE_SIZE * FP_ONE;
      00232E DD 7E E3         [19] 5497 	ld	a, -29 (ix)
      002331 DD 77 FD         [19] 5498 	ld	-3 (ix), a
      002334 DD 7E E4         [19] 5499 	ld	a, -28 (ix)
      002337 DD 77 FE         [19] 5500 	ld	-2 (ix), a
      00233A DD 7E E5         [19] 5501 	ld	a, -27 (ix)
      00233D DD 77 FF         [19] 5502 	ld	-1 (ix), a
      002340 DD 36 FC 00      [19] 5503 	ld	-4 (ix), #0x00
      002344 06 03            [ 7] 5504 	ld	b, #0x03
      002346                       5505 00377$:
      002346 DD CB FD 26      [23] 5506 	sla	-3 (ix)
      00234A DD CB FE 16      [23] 5507 	rl	-2 (ix)
      00234E DD CB FF 16      [23] 5508 	rl	-1 (ix)
      002352 10 F2            [13] 5509 	djnz	00377$
                                   5510 ;pocket_platformer.c:821: player.vy = 0;
      002354 21 00 00         [10] 5511 	ld	hl, #0x0000
      002357 22r18r00         [16] 5512 	ld	((_player + 12)), hl
      00235A 22r1Ar00         [16] 5513 	ld	((_player + 12)+2), hl
                                   5514 ;pocket_platformer.c:822: player.jumping = 0;
      00235D 21r1Er00         [10] 5515 	ld	hl, #(_player + 18)
      002360 36 00            [10] 5516 	ld	(hl), #0x00
                                   5517 ;pocket_platformer.c:823: player.wall_jumping = 0;
      002362 21r1Fr00         [10] 5518 	ld	hl, #(_player + 19)
      002365 36 00            [10] 5519 	ld	(hl), #0x00
                                   5520 ;pocket_platformer.c:824: player.jump_frames = res_physics->max_jump_frames;
      002367 2Ar02r00         [16] 5521 	ld	hl, (_res_physics)
      00236A 11 0C 00         [10] 5522 	ld	de, #0x000c
      00236D 19               [11] 5523 	add	hl, de
      00236E 7E               [ 7] 5524 	ld	a, (hl)
      00236F 32r22r00         [13] 5525 	ld	(#(_player + 22)),a
      002372                       5526 00132$:
                                   5527 ;pocket_platformer.c:827: player.y = new_y;
      002372 11r10r00         [10] 5528 	ld	de, #(_player + 4)
      002375 21 19 00         [10] 5529 	ld	hl, #25
      002378 39               [11] 5530 	add	hl, sp
      002379 01 04 00         [10] 5531 	ld	bc, #0x0004
      00237C ED B0            [21] 5532 	ldir
                                   5533 ;pocket_platformer.c:828: }
      00237E DD F9            [10] 5534 	ld	sp, ix
      002380 DD E1            [14] 5535 	pop	ix
      002382 C9               [10] 5536 	ret
                                   5537 ;pocket_platformer.c:833: static void check_object_collisions(void) {
                                   5538 ;	---------------------------------
                                   5539 ; Function check_object_collisions
                                   5540 ; ---------------------------------
      002383                       5541 _check_object_collisions:
      002383 DD E5            [15] 5542 	push	ix
      002385 DD 21 00 00      [14] 5543 	ld	ix,#0
      002389 DD 39            [15] 5544 	add	ix,sp
      00238B 21 E2 FF         [10] 5545 	ld	hl, #-30
      00238E 39               [11] 5546 	add	hl, sp
      00238F F9               [ 6] 5547 	ld	sp, hl
                                   5548 ;pocket_platformer.c:834: long px = player.x >> 8, py = player.y >> 8;
      002390 ED 5Br0Cr00      [20] 5549 	ld	de, (#_player + 0)
      002394 2Ar0Er00         [16] 5550 	ld	hl, (#_player + 2)
      002397 06 08            [ 7] 5551 	ld	b, #0x08
      002399                       5552 00217$:
      002399 CB 2C            [ 8] 5553 	sra	h
      00239B CB 1D            [ 8] 5554 	rr	l
      00239D CB 1A            [ 8] 5555 	rr	d
      00239F CB 1B            [ 8] 5556 	rr	e
      0023A1 10 F6            [13] 5557 	djnz	00217$
      0023A3 33               [ 6] 5558 	inc	sp
      0023A4 33               [ 6] 5559 	inc	sp
      0023A5 D5               [11] 5560 	push	de
      0023A6 DD 75 E4         [19] 5561 	ld	-28 (ix), l
      0023A9 DD 74 E5         [19] 5562 	ld	-27 (ix), h
      0023AC ED 5Br10r00      [20] 5563 	ld	de, (#(_player + 4) + 0)
      0023B0 2Ar12r00         [16] 5564 	ld	hl, (#(_player + 4) + 2)
      0023B3 06 08            [ 7] 5565 	ld	b, #0x08
      0023B5                       5566 00219$:
      0023B5 CB 2C            [ 8] 5567 	sra	h
      0023B7 CB 1D            [ 8] 5568 	rr	l
      0023B9 CB 1A            [ 8] 5569 	rr	d
      0023BB CB 1B            [ 8] 5570 	rr	e
      0023BD 10 F6            [13] 5571 	djnz	00219$
      0023BF DD 73 E6         [19] 5572 	ld	-26 (ix), e
      0023C2 DD 72 E7         [19] 5573 	ld	-25 (ix), d
      0023C5 DD 75 E8         [19] 5574 	ld	-24 (ix), l
      0023C8 DD 74 E9         [19] 5575 	ld	-23 (ix), h
                                   5576 ;pocket_platformer.c:836: unsigned char obj_count = cur_level->obj_count < MAX_OBJECTS
      0023CB 2Ar5Cr02         [16] 5577 	ld	hl, (_cur_level)
      0023CE 23               [ 6] 5578 	inc	hl
      0023CF 23               [ 6] 5579 	inc	hl
      0023D0 7E               [ 7] 5580 	ld	a, (hl)
      0023D1 FE 80            [ 7] 5581 	cp	a, #0x80
      0023D3 30 09            [12] 5582 	jr	NC, 00129$
      0023D5 DD 77 FE         [19] 5583 	ld	-2 (ix), a
      0023D8 DD 36 FF 00      [19] 5584 	ld	-1 (ix), #0x00
      0023DC 18 08            [12] 5585 	jr	00130$
      0023DE                       5586 00129$:
      0023DE DD 36 FE 80      [19] 5587 	ld	-2 (ix), #0x80
      0023E2 DD 36 FF 00      [19] 5588 	ld	-1 (ix), #0
      0023E6                       5589 00130$:
      0023E6 DD 4E FE         [19] 5590 	ld	c, -2 (ix)
                                   5591 ;pocket_platformer.c:838: map_res_bank();
      0023E9 21 FF FF         [10] 5592 	ld	hl, #_ROM_bank_to_be_mapped_on_slot2
      0023EC 36 02            [10] 5593 	ld	(hl), #0x02
                                   5594 ;pocket_platformer.c:839: for (i = 0; i < obj_count; i++) {
      0023EE DD 7E E6         [19] 5595 	ld	a, -26 (ix)
      0023F1 C6 08            [ 7] 5596 	add	a, #0x08
      0023F3 DD 77 EA         [19] 5597 	ld	-22 (ix), a
      0023F6 DD 7E E7         [19] 5598 	ld	a, -25 (ix)
      0023F9 CE 00            [ 7] 5599 	adc	a, #0x00
      0023FB DD 77 EB         [19] 5600 	ld	-21 (ix), a
      0023FE DD 7E E8         [19] 5601 	ld	a, -24 (ix)
      002401 CE 00            [ 7] 5602 	adc	a, #0x00
      002403 DD 77 EC         [19] 5603 	ld	-20 (ix), a
      002406 DD 7E E9         [19] 5604 	ld	a, -23 (ix)
      002409 CE 00            [ 7] 5605 	adc	a, #0x00
      00240B DD 77 ED         [19] 5606 	ld	-19 (ix), a
      00240E DD 7E E2         [19] 5607 	ld	a, -30 (ix)
      002411 C6 06            [ 7] 5608 	add	a, #0x06
      002413 DD 77 EE         [19] 5609 	ld	-18 (ix), a
      002416 DD 7E E3         [19] 5610 	ld	a, -29 (ix)
      002419 CE 00            [ 7] 5611 	adc	a, #0x00
      00241B DD 77 EF         [19] 5612 	ld	-17 (ix), a
      00241E DD 7E E4         [19] 5613 	ld	a, -28 (ix)
      002421 CE 00            [ 7] 5614 	adc	a, #0x00
      002423 DD 77 F0         [19] 5615 	ld	-16 (ix), a
      002426 DD 7E E5         [19] 5616 	ld	a, -27 (ix)
      002429 CE 00            [ 7] 5617 	adc	a, #0x00
      00242B DD 77 F1         [19] 5618 	ld	-15 (ix), a
      00242E 1E 00            [ 7] 5619 	ld	e, #0x00
      002430                       5620 00126$:
      002430 7B               [ 4] 5621 	ld	a, e
      002431 91               [ 4] 5622 	sub	a, c
      002432 D2rE9r26         [10] 5623 	jp	NC, 00127$
                                   5624 ;pocket_platformer.c:840: level_object *obj = &cur_objects[i];
      002435 D5               [11] 5625 	push	de
      002436 16 00            [ 7] 5626 	ld	d, #0x00
      002438 6B               [ 4] 5627 	ld	l, e
      002439 62               [ 4] 5628 	ld	h, d
      00243A 29               [11] 5629 	add	hl, hl
      00243B 19               [11] 5630 	add	hl, de
      00243C D1               [10] 5631 	pop	de
      00243D 7D               [ 4] 5632 	ld	a, l
      00243E 54               [ 4] 5633 	ld	d, h
      00243F 21r60r02         [10] 5634 	ld	hl, #_cur_objects
      002442 86               [ 7] 5635 	add	a, (hl)
      002443 23               [ 6] 5636 	inc	hl
      002444 47               [ 4] 5637 	ld	b, a
      002445 7A               [ 4] 5638 	ld	a, d
      002446 8E               [ 7] 5639 	adc	a, (hl)
      002447 57               [ 4] 5640 	ld	d, a
                                   5641 ;pocket_platformer.c:841: long ox = (long)obj->x * TILE_SIZE, oy = (long)obj->y * TILE_SIZE;
      002448 DD 70 F2         [19] 5642 	ld	-14 (ix), b
      00244B DD 72 F3         [19] 5643 	ld	-13 (ix), d
      00244E 68               [ 4] 5644 	ld	l, b
      00244F 62               [ 4] 5645 	ld	h, d
      002450 6E               [ 7] 5646 	ld	l, (hl)
                                   5647 ;	spillPairReg hl
                                   5648 ;	spillPairReg hl
                                   5649 ;	spillPairReg hl
      002451 AF               [ 4] 5650 	xor	a, a
      002452 67               [ 4] 5651 	ld	h, a
      002453 57               [ 4] 5652 	ld	d, a
      002454 06 03            [ 7] 5653 	ld	b, #0x03
      002456                       5654 00221$:
      002456 29               [11] 5655 	add	hl, hl
      002457 8F               [ 4] 5656 	adc	a, a
      002458 CB 12            [ 8] 5657 	rl	d
      00245A 10 FA            [13] 5658 	djnz	00221$
      00245C DD 75 F4         [19] 5659 	ld	-12 (ix), l
      00245F DD 74 F5         [19] 5660 	ld	-11 (ix), h
      002462 DD 77 F6         [19] 5661 	ld	-10 (ix), a
      002465 DD 72 F7         [19] 5662 	ld	-9 (ix), d
      002468 DD 6E F2         [19] 5663 	ld	l, -14 (ix)
                                   5664 ;	spillPairReg hl
                                   5665 ;	spillPairReg hl
      00246B DD 66 F3         [19] 5666 	ld	h, -13 (ix)
                                   5667 ;	spillPairReg hl
                                   5668 ;	spillPairReg hl
      00246E 23               [ 6] 5669 	inc	hl
      00246F 6E               [ 7] 5670 	ld	l, (hl)
                                   5671 ;	spillPairReg hl
                                   5672 ;	spillPairReg hl
                                   5673 ;	spillPairReg hl
      002470 AF               [ 4] 5674 	xor	a, a
      002471 67               [ 4] 5675 	ld	h, a
      002472 57               [ 4] 5676 	ld	d, a
      002473 06 03            [ 7] 5677 	ld	b, #0x03
      002475                       5678 00223$:
      002475 29               [11] 5679 	add	hl, hl
      002476 8F               [ 4] 5680 	adc	a, a
      002477 CB 12            [ 8] 5681 	rl	d
      002479 10 FA            [13] 5682 	djnz	00223$
      00247B DD 75 F8         [19] 5683 	ld	-8 (ix), l
      00247E DD 74 F9         [19] 5684 	ld	-7 (ix), h
      002481 DD 77 FA         [19] 5685 	ld	-6 (ix), a
      002484 DD 72 FB         [19] 5686 	ld	-5 (ix), d
      002487 DD 7E F8         [19] 5687 	ld	a, -8 (ix)
      00248A DD 77 FC         [19] 5688 	ld	-4 (ix), a
      00248D DD 7E F9         [19] 5689 	ld	a, -7 (ix)
      002490 DD 77 FD         [19] 5690 	ld	-3 (ix), a
      002493 DD 7E FA         [19] 5691 	ld	a, -6 (ix)
      002496 DD 77 FE         [19] 5692 	ld	-2 (ix), a
      002499 DD 7E FB         [19] 5693 	ld	a, -5 (ix)
      00249C DD 77 FF         [19] 5694 	ld	-1 (ix), a
                                   5695 ;pocket_platformer.c:842: if (px + PLAYER_W <= ox || px >= ox + TILE_SIZE) continue;
      00249F DD 7E F4         [19] 5696 	ld	a, -12 (ix)
      0024A2 DD 96 EE         [19] 5697 	sub	a, -18 (ix)
      0024A5 DD 7E F5         [19] 5698 	ld	a, -11 (ix)
      0024A8 DD 9E EF         [19] 5699 	sbc	a, -17 (ix)
      0024AB DD 7E F6         [19] 5700 	ld	a, -10 (ix)
      0024AE DD 9E F0         [19] 5701 	sbc	a, -16 (ix)
      0024B1 DD 7E F7         [19] 5702 	ld	a, -9 (ix)
      0024B4 DD 9E F1         [19] 5703 	sbc	a, -15 (ix)
      0024B7 E2rBCr24         [10] 5704 	jp	PO, 00225$
      0024BA EE 80            [ 7] 5705 	xor	a, #0x80
      0024BC                       5706 00225$:
      0024BC F2rE5r26         [10] 5707 	jp	P, 00123$
      0024BF DD 7E F4         [19] 5708 	ld	a, -12 (ix)
      0024C2 C6 08            [ 7] 5709 	add	a, #0x08
      0024C4 47               [ 4] 5710 	ld	b, a
      0024C5 DD 7E F5         [19] 5711 	ld	a, -11 (ix)
      0024C8 CE 00            [ 7] 5712 	adc	a, #0x00
      0024CA 57               [ 4] 5713 	ld	d, a
      0024CB DD 7E F6         [19] 5714 	ld	a, -10 (ix)
      0024CE CE 00            [ 7] 5715 	adc	a, #0x00
      0024D0 6F               [ 4] 5716 	ld	l, a
                                   5717 ;	spillPairReg hl
                                   5718 ;	spillPairReg hl
      0024D1 DD 7E F7         [19] 5719 	ld	a, -9 (ix)
      0024D4 CE 00            [ 7] 5720 	adc	a, #0x00
      0024D6 67               [ 4] 5721 	ld	h, a
                                   5722 ;	spillPairReg hl
                                   5723 ;	spillPairReg hl
      0024D7 DD 7E E2         [19] 5724 	ld	a, -30 (ix)
      0024DA 90               [ 4] 5725 	sub	a, b
      0024DB DD 7E E3         [19] 5726 	ld	a, -29 (ix)
      0024DE 9A               [ 4] 5727 	sbc	a, d
      0024DF DD 7E E4         [19] 5728 	ld	a, -28 (ix)
      0024E2 9D               [ 4] 5729 	sbc	a, l
      0024E3 DD 7E E5         [19] 5730 	ld	a, -27 (ix)
      0024E6 9C               [ 4] 5731 	sbc	a, h
      0024E7 E2rECr24         [10] 5732 	jp	PO, 00226$
      0024EA EE 80            [ 7] 5733 	xor	a, #0x80
      0024EC                       5734 00226$:
      0024EC F2rE5r26         [10] 5735 	jp	P, 00123$
                                   5736 ;pocket_platformer.c:843: if (py + PLAYER_H <= oy || py >= oy + TILE_SIZE) continue;
      0024EF DD 7E FC         [19] 5737 	ld	a, -4 (ix)
      0024F2 DD 96 EA         [19] 5738 	sub	a, -22 (ix)
      0024F5 DD 7E FD         [19] 5739 	ld	a, -3 (ix)
      0024F8 DD 9E EB         [19] 5740 	sbc	a, -21 (ix)
      0024FB DD 7E FE         [19] 5741 	ld	a, -2 (ix)
      0024FE DD 9E EC         [19] 5742 	sbc	a, -20 (ix)
      002501 DD 7E FF         [19] 5743 	ld	a, -1 (ix)
      002504 DD 9E ED         [19] 5744 	sbc	a, -19 (ix)
      002507 E2r0Cr25         [10] 5745 	jp	PO, 00227$
      00250A EE 80            [ 7] 5746 	xor	a, #0x80
      00250C                       5747 00227$:
      00250C F2rE5r26         [10] 5748 	jp	P, 00123$
      00250F DD 7E FC         [19] 5749 	ld	a, -4 (ix)
      002512 C6 08            [ 7] 5750 	add	a, #0x08
      002514 47               [ 4] 5751 	ld	b, a
      002515 DD 7E FD         [19] 5752 	ld	a, -3 (ix)
      002518 CE 00            [ 7] 5753 	adc	a, #0x00
      00251A 57               [ 4] 5754 	ld	d, a
      00251B DD 7E FE         [19] 5755 	ld	a, -2 (ix)
      00251E CE 00            [ 7] 5756 	adc	a, #0x00
      002520 6F               [ 4] 5757 	ld	l, a
                                   5758 ;	spillPairReg hl
                                   5759 ;	spillPairReg hl
      002521 DD 7E FF         [19] 5760 	ld	a, -1 (ix)
      002524 CE 00            [ 7] 5761 	adc	a, #0x00
      002526 67               [ 4] 5762 	ld	h, a
                                   5763 ;	spillPairReg hl
                                   5764 ;	spillPairReg hl
      002527 DD 7E E6         [19] 5765 	ld	a, -26 (ix)
      00252A 90               [ 4] 5766 	sub	a, b
      00252B DD 7E E7         [19] 5767 	ld	a, -25 (ix)
      00252E 9A               [ 4] 5768 	sbc	a, d
      00252F DD 7E E8         [19] 5769 	ld	a, -24 (ix)
      002532 9D               [ 4] 5770 	sbc	a, l
      002533 DD 7E E9         [19] 5771 	ld	a, -23 (ix)
      002536 9C               [ 4] 5772 	sbc	a, h
      002537 E2r3Cr25         [10] 5773 	jp	PO, 00228$
      00253A EE 80            [ 7] 5774 	xor	a, #0x80
      00253C                       5775 00228$:
      00253C F2rE5r26         [10] 5776 	jp	P, 00123$
                                   5777 ;pocket_platformer.c:844: switch (obj->type) {
      00253F DD 6E F2         [19] 5778 	ld	l, -14 (ix)
                                   5779 ;	spillPairReg hl
                                   5780 ;	spillPairReg hl
      002542 DD 66 F3         [19] 5781 	ld	h, -13 (ix)
                                   5782 ;	spillPairReg hl
                                   5783 ;	spillPairReg hl
      002545 23               [ 6] 5784 	inc	hl
      002546 23               [ 6] 5785 	inc	hl
      002547 7E               [ 7] 5786 	ld	a, (hl)
      002548 FE 02            [ 7] 5787 	cp	a, #0x02
      00254A 28 14            [12] 5788 	jr	Z, 00107$
      00254C FE 03            [ 7] 5789 	cp	a, #0x03
      00254E 28 2B            [12] 5790 	jr	Z, 00111$
      002550 FE 04            [ 7] 5791 	cp	a, #0x04
      002552 28 2F            [12] 5792 	jr	Z, 00112$
      002554 FE 05            [ 7] 5793 	cp	a, #0x05
      002556 CArD9r26         [10] 5794 	jp	Z,00119$
      002559 D6 0C            [ 7] 5795 	sub	a, #0x0c
      00255B 28 0B            [12] 5796 	jr	Z, 00108$
      00255D C3rE5r26         [10] 5797 	jp	00123$
                                   5798 ;pocket_platformer.c:845: case OBJ_FINISH_FLAG: level_complete = 1; break;
      002560                       5799 00107$:
      002560 21rB0r00         [10] 5800 	ld	hl, #_level_complete
      002563 36 01            [10] 5801 	ld	(hl), #0x01
      002565 C3rE5r26         [10] 5802 	jp	00123$
                                   5803 ;pocket_platformer.c:846: case OBJ_FINISH_FLAG_LOCKED:
      002568                       5804 00108$:
                                   5805 ;pocket_platformer.c:847: if (!coins_remaining()) level_complete = 1;
      002568 C5               [11] 5806 	push	bc
      002569 D5               [11] 5807 	push	de
      00256A CDrE8r0A         [17] 5808 	call	_coins_remaining
      00256D D1               [10] 5809 	pop	de
      00256E C1               [10] 5810 	pop	bc
      00256F B7               [ 4] 5811 	or	a, a
      002570 C2rE5r26         [10] 5812 	jp	NZ, 00123$
      002573 21rB0r00         [10] 5813 	ld	hl, #_level_complete
      002576 36 01            [10] 5814 	ld	(hl), #0x01
                                   5815 ;pocket_platformer.c:848: break;
      002578 C3rE5r26         [10] 5816 	jp	00123$
                                   5817 ;pocket_platformer.c:849: case OBJ_SPIKE: player_died = 1; break;
      00257B                       5818 00111$:
      00257B 21rB1r00         [10] 5819 	ld	hl, #_player_died
      00257E 36 01            [10] 5820 	ld	(hl), #0x01
      002580 C3rE5r26         [10] 5821 	jp	00123$
                                   5822 ;pocket_platformer.c:850: case OBJ_TRAMPOLINE:
      002583                       5823 00112$:
                                   5824 ;pocket_platformer.c:851: if (player.vy >= 0) {
      002583 21r18r00         [10] 5825 	ld	hl, #_player + 12
      002586 46               [ 7] 5826 	ld	b, (hl)
      002587 23               [ 6] 5827 	inc	hl
      002588 56               [ 7] 5828 	ld	d, (hl)
      002589 23               [ 6] 5829 	inc	hl
      00258A 23               [ 6] 5830 	inc	hl
      00258B 7E               [ 7] 5831 	ld	a, (hl)
      00258C 2B               [ 6] 5832 	dec	hl
      00258D 6E               [ 7] 5833 	ld	l, (hl)
                                   5834 ;	spillPairReg hl
                                   5835 ;	spillPairReg hl
                                   5836 ;	spillPairReg hl
      00258E CB 7F            [ 8] 5837 	bit	7,a
      002590 C2rE5r26         [10] 5838 	jp	NZ, 00123$
                                   5839 ;pocket_platformer.c:852: long tramp_mid = (long)obj->y * TILE_SIZE + TILE_SIZE / 2;
      002593 DD 7E F8         [19] 5840 	ld	a, -8 (ix)
      002596 C6 04            [ 7] 5841 	add	a, #0x04
      002598 DD 77 FC         [19] 5842 	ld	-4 (ix), a
      00259B DD 7E F9         [19] 5843 	ld	a, -7 (ix)
      00259E CE 00            [ 7] 5844 	adc	a, #0x00
      0025A0 DD 77 FD         [19] 5845 	ld	-3 (ix), a
      0025A3 DD 7E FA         [19] 5846 	ld	a, -6 (ix)
      0025A6 CE 00            [ 7] 5847 	adc	a, #0x00
      0025A8 DD 77 FE         [19] 5848 	ld	-2 (ix), a
      0025AB DD 7E FB         [19] 5849 	ld	a, -5 (ix)
      0025AE CE 00            [ 7] 5850 	adc	a, #0x00
      0025B0 DD 77 FF         [19] 5851 	ld	-1 (ix), a
                                   5852 ;pocket_platformer.c:853: if ((player.y >> 8) + PLAYER_H <= tramp_mid + 2) {
      0025B3 21r10r00         [10] 5853 	ld	hl, #(_player + 4)
      0025B6 46               [ 7] 5854 	ld	b, (hl)
      0025B7 23               [ 6] 5855 	inc	hl
      0025B8 56               [ 7] 5856 	ld	d, (hl)
      0025B9 23               [ 6] 5857 	inc	hl
      0025BA 23               [ 6] 5858 	inc	hl
      0025BB 7E               [ 7] 5859 	ld	a, (hl)
      0025BC 2B               [ 6] 5860 	dec	hl
      0025BD 6E               [ 7] 5861 	ld	l, (hl)
                                   5862 ;	spillPairReg hl
      0025BE 67               [ 4] 5863 	ld	h, a
                                   5864 ;	spillPairReg hl
                                   5865 ;	spillPairReg hl
      0025BF DD 70 F4         [19] 5866 	ld	-12 (ix), b
      0025C2 DD 72 F5         [19] 5867 	ld	-11 (ix), d
      0025C5 DD 75 F6         [19] 5868 	ld	-10 (ix), l
      0025C8 DD 74 F7         [19] 5869 	ld	-9 (ix), h
      0025CB 06 08            [ 7] 5870 	ld	b, #0x08
      0025CD                       5871 00234$:
      0025CD DD CB F7 2E      [23] 5872 	sra	-9 (ix)
      0025D1 DD CB F6 1E      [23] 5873 	rr	-10 (ix)
      0025D5 DD CB F5 1E      [23] 5874 	rr	-11 (ix)
      0025D9 DD CB F4 1E      [23] 5875 	rr	-12 (ix)
      0025DD 10 EE            [13] 5876 	djnz	00234$
      0025DF DD 7E F4         [19] 5877 	ld	a, -12 (ix)
      0025E2 C6 08            [ 7] 5878 	add	a, #0x08
      0025E4 DD 77 F8         [19] 5879 	ld	-8 (ix), a
      0025E7 DD 7E F5         [19] 5880 	ld	a, -11 (ix)
      0025EA CE 00            [ 7] 5881 	adc	a, #0x00
      0025EC DD 77 F9         [19] 5882 	ld	-7 (ix), a
      0025EF DD 7E F6         [19] 5883 	ld	a, -10 (ix)
      0025F2 CE 00            [ 7] 5884 	adc	a, #0x00
      0025F4 DD 77 FA         [19] 5885 	ld	-6 (ix), a
      0025F7 DD 7E F7         [19] 5886 	ld	a, -9 (ix)
      0025FA CE 00            [ 7] 5887 	adc	a, #0x00
      0025FC DD 77 FB         [19] 5888 	ld	-5 (ix), a
      0025FF DD 7E FC         [19] 5889 	ld	a, -4 (ix)
      002602 C6 02            [ 7] 5890 	add	a, #0x02
      002604 47               [ 4] 5891 	ld	b, a
      002605 DD 7E FD         [19] 5892 	ld	a, -3 (ix)
      002608 CE 00            [ 7] 5893 	adc	a, #0x00
      00260A 57               [ 4] 5894 	ld	d, a
      00260B DD 7E FE         [19] 5895 	ld	a, -2 (ix)
      00260E CE 00            [ 7] 5896 	adc	a, #0x00
      002610 6F               [ 4] 5897 	ld	l, a
                                   5898 ;	spillPairReg hl
                                   5899 ;	spillPairReg hl
      002611 DD 7E FF         [19] 5900 	ld	a, -1 (ix)
      002614 CE 00            [ 7] 5901 	adc	a, #0x00
      002616 67               [ 4] 5902 	ld	h, a
                                   5903 ;	spillPairReg hl
                                   5904 ;	spillPairReg hl
      002617 78               [ 4] 5905 	ld	a, b
      002618 DD 96 F8         [19] 5906 	sub	a, -8 (ix)
      00261B 7A               [ 4] 5907 	ld	a, d
      00261C DD 9E F9         [19] 5908 	sbc	a, -7 (ix)
      00261F 7D               [ 4] 5909 	ld	a, l
      002620 DD 9E FA         [19] 5910 	sbc	a, -6 (ix)
      002623 7C               [ 4] 5911 	ld	a, h
      002624 DD 9E FB         [19] 5912 	sbc	a, -5 (ix)
      002627 E2r2Cr26         [10] 5913 	jp	PO, 00236$
      00262A EE 80            [ 7] 5914 	xor	a, #0x80
      00262C                       5915 00236$:
      00262C FArE5r26         [10] 5916 	jp	M, 00123$
                                   5917 ;pocket_platformer.c:854: long base = (long)res_physics->jump_speed;
      00262F 2Ar02r00         [16] 5918 	ld	hl, (_res_physics)
      002632 C5               [11] 5919 	push	bc
      002633 01 0A 00         [10] 5920 	ld	bc, #0x000a
      002636 09               [11] 5921 	add	hl, bc
      002637 C1               [10] 5922 	pop	bc
      002638 46               [ 7] 5923 	ld	b, (hl)
      002639 23               [ 6] 5924 	inc	hl
      00263A 7E               [ 7] 5925 	ld	a, (hl)
      00263B DD 70 F8         [19] 5926 	ld	-8 (ix), b
      00263E DD 77 F9         [19] 5927 	ld	-7 (ix), a
      002641 07               [ 4] 5928 	rlca
      002642 9F               [ 4] 5929 	sbc	a, a
      002643 DD 77 FA         [19] 5930 	ld	-6 (ix), a
      002646 DD 77 FB         [19] 5931 	ld	-5 (ix), a
                                   5932 ;pocket_platformer.c:855: player.forced_jump_speed = base + base * 4 / 15;
      002649 DD 6E F8         [19] 5933 	ld	l, -8 (ix)
                                   5934 ;	spillPairReg hl
                                   5935 ;	spillPairReg hl
      00264C DD 66 F9         [19] 5936 	ld	h, -7 (ix)
                                   5937 ;	spillPairReg hl
                                   5938 ;	spillPairReg hl
      00264F DD 46 FA         [19] 5939 	ld	b, -6 (ix)
      002652 DD 56 FB         [19] 5940 	ld	d, -5 (ix)
      002655 3E 02            [ 7] 5941 	ld	a, #0x02
      002657                       5942 00237$:
      002657 29               [11] 5943 	add	hl, hl
      002658 CB 10            [ 8] 5944 	rl	b
      00265A CB 12            [ 8] 5945 	rl	d
      00265C 3D               [ 4] 5946 	dec	a
      00265D 20 F8            [12] 5947 	jr	NZ,00237$
      00265F C5               [11] 5948 	push	bc
      002660 D5               [11] 5949 	push	de
      002661 FD 21 00 00      [14] 5950 	ld	iy, #0x0000
      002665 FD E5            [15] 5951 	push	iy
      002667 FD 21 0F 00      [14] 5952 	ld	iy, #0x000f
      00266B FD E5            [15] 5953 	push	iy
      00266D EB               [ 4] 5954 	ex	de, hl
      00266E 68               [ 4] 5955 	ld	l, b
                                   5956 ;	spillPairReg hl
                                   5957 ;	spillPairReg hl
      00266F CDr00r00         [17] 5958 	call	__divslong
      002672 F1               [10] 5959 	pop	af
      002673 F1               [10] 5960 	pop	af
      002674 D5               [11] 5961 	push	de
      002675 FD E1            [14] 5962 	pop	iy
      002677 D1               [10] 5963 	pop	de
      002678 C1               [10] 5964 	pop	bc
      002679 FD E5            [15] 5965 	push	iy
      00267B DD 7E E0         [19] 5966 	ld	a, -32 (ix)
      00267E FD E1            [14] 5967 	pop	iy
      002680 DD 86 F8         [19] 5968 	add	a, -8 (ix)
      002683 DD 77 FC         [19] 5969 	ld	-4 (ix), a
      002686 FD E5            [15] 5970 	push	iy
      002688 DD 7E E1         [19] 5971 	ld	a, -31 (ix)
      00268B FD E1            [14] 5972 	pop	iy
      00268D DD 8E F9         [19] 5973 	adc	a, -7 (ix)
      002690 DD 77 FD         [19] 5974 	ld	-3 (ix), a
      002693 7D               [ 4] 5975 	ld	a, l
      002694 DD 8E FA         [19] 5976 	adc	a, -6 (ix)
      002697 DD 77 FE         [19] 5977 	ld	-2 (ix), a
      00269A 7C               [ 4] 5978 	ld	a, h
      00269B DD 8E FB         [19] 5979 	adc	a, -5 (ix)
      00269E DD 77 FF         [19] 5980 	ld	-1 (ix), a
      0026A1 D5               [11] 5981 	push	de
      0026A2 C5               [11] 5982 	push	bc
      0026A3 11r28r00         [10] 5983 	ld	de, #(_player + 28)
      0026A6 21 1E 00         [10] 5984 	ld	hl, #30
      0026A9 39               [11] 5985 	add	hl, sp
      0026AA 01 04 00         [10] 5986 	ld	bc, #0x0004
      0026AD ED B0            [21] 5987 	ldir
      0026AF C1               [10] 5988 	pop	bc
      0026B0 D1               [10] 5989 	pop	de
                                   5990 ;pocket_platformer.c:856: player.jumping = 1;
      0026B1 21r1Er00         [10] 5991 	ld	hl, #(_player + 18)
      0026B4 36 01            [10] 5992 	ld	(hl), #0x01
                                   5993 ;pocket_platformer.c:857: player.jump_frames = 0;
      0026B6 21r22r00         [10] 5994 	ld	hl, #(_player + 22)
      0026B9 36 00            [10] 5995 	ld	(hl), #0x00
                                   5996 ;pocket_platformer.c:858: player.falling = 0;
      0026BB 21r1Dr00         [10] 5997 	ld	hl, #(_player + 17)
      0026BE 36 00            [10] 5998 	ld	(hl), #0x00
                                   5999 ;pocket_platformer.c:859: player.on_ground = 0;
      0026C0 21r1Cr00         [10] 6000 	ld	hl, #(_player + 16)
      0026C3 36 00            [10] 6001 	ld	(hl), #0x00
                                   6002 ;pocket_platformer.c:860: player.double_jump_used = 0;
      0026C5 21r24r00         [10] 6003 	ld	hl, #(_player + 24)
      0026C8 36 00            [10] 6004 	ld	(hl), #0x00
                                   6005 ;pocket_platformer.c:861: if (vp_block_count) vp_toggle();
      0026CA 3Ar42r01         [13] 6006 	ld	a, (_vp_block_count+0)
      0026CD B7               [ 4] 6007 	or	a, a
      0026CE 28 15            [12] 6008 	jr	Z, 00123$
      0026D0 C5               [11] 6009 	push	bc
      0026D1 D5               [11] 6010 	push	de
      0026D2 CDr40r27         [17] 6011 	call	_vp_toggle
      0026D5 D1               [10] 6012 	pop	de
      0026D6 C1               [10] 6013 	pop	bc
                                   6014 ;pocket_platformer.c:864: break;
      0026D7 18 0C            [12] 6015 	jr	00123$
                                   6016 ;pocket_platformer.c:865: case OBJ_COIN:
      0026D9                       6017 00119$:
                                   6018 ;pocket_platformer.c:866: if (!coin_collected[i]) coin_collected[i] = 1; break;
      0026D9 21r30r00         [10] 6019 	ld	hl, #_coin_collected
      0026DC 16 00            [ 7] 6020 	ld	d, #0x00
      0026DE 19               [11] 6021 	add	hl, de
      0026DF 7E               [ 7] 6022 	ld	a, (hl)
      0026E0 B7               [ 4] 6023 	or	a, a
      0026E1 20 02            [12] 6024 	jr	NZ, 00123$
      0026E3 36 01            [10] 6025 	ld	(hl), #0x01
                                   6026 ;pocket_platformer.c:867: }
      0026E5                       6027 00123$:
                                   6028 ;pocket_platformer.c:839: for (i = 0; i < obj_count; i++) {
      0026E5 1C               [ 4] 6029 	inc	e
      0026E6 C3r30r24         [10] 6030 	jp	00126$
      0026E9                       6031 00127$:
                                   6032 ;pocket_platformer.c:869: }
      0026E9 DD F9            [10] 6033 	ld	sp, ix
      0026EB DD E1            [14] 6034 	pop	ix
      0026ED C9               [10] 6035 	ret
                                   6036 ;pocket_platformer.c:884: static unsigned char vp_is_passable(unsigned char tx, unsigned char ty) {
                                   6037 ;	---------------------------------
                                   6038 ; Function vp_is_passable
                                   6039 ; ---------------------------------
      0026EE                       6040 _vp_is_passable:
      0026EE DD E5            [15] 6041 	push	ix
      0026F0 DD 21 00 00      [14] 6042 	ld	ix,#0
      0026F4 DD 39            [15] 6043 	add	ix,sp
      0026F6 F5               [11] 6044 	push	af
      0026F7 DD 77 FF         [19] 6045 	ld	-1 (ix), a
      0026FA DD 75 FE         [19] 6046 	ld	-2 (ix), l
                                   6047 ;pocket_platformer.c:886: for (i = 0; i < vp_block_count; i++) {
      0026FD 0E 00            [ 7] 6048 	ld	c, #0x00
      0026FF                       6049 00106$:
      0026FF 21r42r01         [10] 6050 	ld	hl, #_vp_block_count
      002702 79               [ 4] 6051 	ld	a, c
      002703 96               [ 7] 6052 	sub	a, (hl)
      002704 30 34            [12] 6053 	jr	NC, 00104$
                                   6054 ;pocket_platformer.c:887: if (vp_blocks[i].tx == tx && vp_blocks[i].ty == ty) {
      002706 11rB2r00         [10] 6055 	ld	de, #_vp_blocks+0
      002709 06 00            [ 7] 6056 	ld	b, #0x00
      00270B 69               [ 4] 6057 	ld	l, c
      00270C 60               [ 4] 6058 	ld	h, b
      00270D 29               [11] 6059 	add	hl, hl
      00270E 09               [11] 6060 	add	hl, bc
      00270F 19               [11] 6061 	add	hl, de
      002710 EB               [ 4] 6062 	ex	de, hl
      002711 1A               [ 7] 6063 	ld	a, (de)
      002712 47               [ 4] 6064 	ld	b, a
      002713 DD 7E FF         [19] 6065 	ld	a, -1 (ix)
      002716 90               [ 4] 6066 	sub	a, b
      002717 20 1E            [12] 6067 	jr	NZ, 00107$
      002719 6B               [ 4] 6068 	ld	l, e
                                   6069 ;	spillPairReg hl
                                   6070 ;	spillPairReg hl
      00271A 62               [ 4] 6071 	ld	h, d
                                   6072 ;	spillPairReg hl
                                   6073 ;	spillPairReg hl
      00271B 23               [ 6] 6074 	inc	hl
      00271C DD 7E FE         [19] 6075 	ld	a,-2 (ix)
      00271F 96               [ 7] 6076 	sub	a,(hl)
      002720 20 15            [12] 6077 	jr	NZ, 00107$
                                   6078 ;pocket_platformer.c:890: return vp_blocks[i].is_violet ? !vp_violet_active : vp_violet_active;
      002722 13               [ 6] 6079 	inc	de
      002723 13               [ 6] 6080 	inc	de
      002724 1A               [ 7] 6081 	ld	a, (de)
      002725 B7               [ 4] 6082 	or	a, a
      002726 28 0A            [12] 6083 	jr	Z, 00110$
      002728 3Ar43r01         [13] 6084 	ld	a, (_vp_violet_active+0)
      00272B D6 01            [ 7] 6085 	sub	a,#0x01
      00272D 3E 00            [ 7] 6086 	ld	a, #0x00
      00272F 17               [ 4] 6087 	rla
      002730 18 09            [12] 6088 	jr	00108$
      002732                       6089 00110$:
      002732 3Ar43r01         [13] 6090 	ld	a, (_vp_violet_active+0)
      002735 18 04            [12] 6091 	jr	00108$
      002737                       6092 00107$:
                                   6093 ;pocket_platformer.c:886: for (i = 0; i < vp_block_count; i++) {
      002737 0C               [ 4] 6094 	inc	c
      002738 18 C5            [12] 6095 	jr	00106$
      00273A                       6096 00104$:
                                   6097 ;pocket_platformer.c:893: return 0;
      00273A AF               [ 4] 6098 	xor	a, a
      00273B                       6099 00108$:
                                   6100 ;pocket_platformer.c:894: }
      00273B DD F9            [10] 6101 	ld	sp, ix
      00273D DD E1            [14] 6102 	pop	ix
      00273F C9               [10] 6103 	ret
                                   6104 ;pocket_platformer.c:897: static void vp_toggle(void) {
                                   6105 ;	---------------------------------
                                   6106 ; Function vp_toggle
                                   6107 ; ---------------------------------
      002740                       6108 _vp_toggle:
      002740 DD E5            [15] 6109 	push	ix
      002742 DD 21 00 00      [14] 6110 	ld	ix,#0
      002746 DD 39            [15] 6111 	add	ix,sp
      002748 21 EB FF         [10] 6112 	ld	hl, #-21
      00274B 39               [11] 6113 	add	hl, sp
      00274C F9               [ 6] 6114 	ld	sp, hl
                                   6115 ;pocket_platformer.c:899: vp_violet_active = !vp_violet_active;
      00274D 3Ar43r01         [13] 6116 	ld	a, (_vp_violet_active+0)
      002750 D6 01            [ 7] 6117 	sub	a,#0x01
      002752 3E 00            [ 7] 6118 	ld	a, #0x00
      002754 17               [ 4] 6119 	rla
      002755 32r43r01         [13] 6120 	ld	(_vp_violet_active+0), a
                                   6121 ;pocket_platformer.c:900: for (i = 0; i < vp_block_count; i++) {
      002758 DD 36 FF 00      [19] 6122 	ld	-1 (ix), #0x00
      00275C                       6123 00113$:
      00275C 21r42r01         [10] 6124 	ld	hl, #_vp_block_count
      00275F DD 7E FF         [19] 6125 	ld	a, -1 (ix)
      002762 96               [ 7] 6126 	sub	a, (hl)
      002763 D2r86r29         [10] 6127 	jp	NC, 00115$
                                   6128 ;pocket_platformer.c:901: unsigned char tx    = vp_blocks[i].tx;
      002766 DD 4E FF         [19] 6129 	ld	c, -1 (ix)
      002769 06 00            [ 7] 6130 	ld	b, #0x00
      00276B 69               [ 4] 6131 	ld	l, c
      00276C 60               [ 4] 6132 	ld	h, b
      00276D 29               [11] 6133 	add	hl, hl
      00276E 09               [11] 6134 	add	hl, bc
      00276F DD 75 FD         [19] 6135 	ld	-3 (ix), l
      002772 DD 74 FE         [19] 6136 	ld	-2 (ix), h
      002775 3ErB2            [ 7] 6137 	ld	a, #<(_vp_blocks)
      002777 DD 86 FD         [19] 6138 	add	a, -3 (ix)
      00277A DD 77 FB         [19] 6139 	ld	-5 (ix), a
      00277D 3Es00            [ 7] 6140 	ld	a, #>(_vp_blocks)
      00277F DD 8E FE         [19] 6141 	adc	a, -2 (ix)
      002782 DD 77 FC         [19] 6142 	ld	-4 (ix), a
      002785 DD 6E FB         [19] 6143 	ld	l, -5 (ix)
      002788 DD 66 FC         [19] 6144 	ld	h, -4 (ix)
      00278B 7E               [ 7] 6145 	ld	a, (hl)
      00278C DD 77 FD         [19] 6146 	ld	-3 (ix), a
                                   6147 ;pocket_platformer.c:902: unsigned char ty    = vp_blocks[i].ty;
      00278F DD 7E FB         [19] 6148 	ld	a, -5 (ix)
      002792 DD 77 F9         [19] 6149 	ld	-7 (ix), a
      002795 DD 7E FC         [19] 6150 	ld	a, -4 (ix)
      002798 DD 77 FA         [19] 6151 	ld	-6 (ix), a
      00279B DD 6E F9         [19] 6152 	ld	l, -7 (ix)
      00279E DD 66 FA         [19] 6153 	ld	h, -6 (ix)
      0027A1 23               [ 6] 6154 	inc	hl
      0027A2 7E               [ 7] 6155 	ld	a, (hl)
      0027A3 DD 77 FE         [19] 6156 	ld	-2 (ix), a
                                   6157 ;pocket_platformer.c:903: unsigned char solid = vp_blocks[i].is_violet ? vp_violet_active : !vp_violet_active;
      0027A6 DD 6E FB         [19] 6158 	ld	l, -5 (ix)
      0027A9 DD 66 FC         [19] 6159 	ld	h, -4 (ix)
      0027AC 23               [ 6] 6160 	inc	hl
      0027AD 23               [ 6] 6161 	inc	hl
      0027AE 4E               [ 7] 6162 	ld	c, (hl)
      0027AF 79               [ 4] 6163 	ld	a, c
      0027B0 B7               [ 4] 6164 	or	a, a
      0027B1 28 05            [12] 6165 	jr	Z, 00117$
      0027B3 3Ar43r01         [13] 6166 	ld	a, (_vp_violet_active+0)
      0027B6 18 08            [12] 6167 	jr	00118$
      0027B8                       6168 00117$:
      0027B8 3Ar43r01         [13] 6169 	ld	a, (_vp_violet_active+0)
      0027BB D6 01            [ 7] 6170 	sub	a,#0x01
      0027BD 3E 00            [ 7] 6171 	ld	a, #0x00
      0027BF 17               [ 4] 6172 	rla
      0027C0                       6173 00118$:
      0027C0 DD 77 FA         [19] 6174 	ld	-6 (ix), a
                                   6175 ;pocket_platformer.c:907: idx = solid ? res_header->vio_solid_vram_idx : res_header->vio_ghost_vram_idx;
      0027C3 2Ar00r00         [16] 6176 	ld	hl, (_res_header)
      0027C6 DD 75 FB         [19] 6177 	ld	-5 (ix), l
      0027C9 DD 74 FC         [19] 6178 	ld	-4 (ix), h
                                   6179 ;pocket_platformer.c:906: if (vp_blocks[i].is_violet)
      0027CC 79               [ 4] 6180 	ld	a, c
      0027CD B7               [ 4] 6181 	or	a, a
      0027CE 28 21            [12] 6182 	jr	Z, 00102$
                                   6183 ;pocket_platformer.c:907: idx = solid ? res_header->vio_solid_vram_idx : res_header->vio_ghost_vram_idx;
      0027D0 DD 7E FA         [19] 6184 	ld	a, -6 (ix)
      0027D3 B7               [ 4] 6185 	or	a, a
      0027D4 28 0D            [12] 6186 	jr	Z, 00119$
      0027D6 DD 4E FB         [19] 6187 	ld	c, -5 (ix)
      0027D9 DD 46 FC         [19] 6188 	ld	b, -4 (ix)
      0027DC 21 0F 00         [10] 6189 	ld	hl, #15
      0027DF 09               [11] 6190 	add	hl, bc
      0027E0 46               [ 7] 6191 	ld	b, (hl)
      0027E1 18 0B            [12] 6192 	jr	00120$
      0027E3                       6193 00119$:
      0027E3 DD 4E FB         [19] 6194 	ld	c, -5 (ix)
      0027E6 DD 46 FC         [19] 6195 	ld	b, -4 (ix)
      0027E9 21 10 00         [10] 6196 	ld	hl, #16
      0027EC 09               [11] 6197 	add	hl, bc
      0027ED 46               [ 7] 6198 	ld	b, (hl)
      0027EE                       6199 00120$:
      0027EE 78               [ 4] 6200 	ld	a, b
      0027EF 18 1E            [12] 6201 	jr	00103$
      0027F1                       6202 00102$:
                                   6203 ;pocket_platformer.c:909: idx = solid ? res_header->pink_solid_vram_idx : res_header->pink_ghost_vram_idx;
      0027F1 DD 7E FA         [19] 6204 	ld	a, -6 (ix)
      0027F4 B7               [ 4] 6205 	or	a, a
      0027F5 28 0D            [12] 6206 	jr	Z, 00121$
      0027F7 DD 4E FB         [19] 6207 	ld	c, -5 (ix)
      0027FA DD 46 FC         [19] 6208 	ld	b, -4 (ix)
      0027FD 21 11 00         [10] 6209 	ld	hl, #17
      002800 09               [11] 6210 	add	hl, bc
      002801 7E               [ 7] 6211 	ld	a, (hl)
      002802 18 0B            [12] 6212 	jr	00122$
      002804                       6213 00121$:
      002804 DD 6E FB         [19] 6214 	ld	l, -5 (ix)
      002807 DD 66 FC         [19] 6215 	ld	h, -4 (ix)
      00280A 11 12 00         [10] 6216 	ld	de, #0x0012
      00280D 19               [11] 6217 	add	hl, de
      00280E 7E               [ 7] 6218 	ld	a, (hl)
      00280F                       6219 00122$:
      00280F                       6220 00103$:
                                   6221 ;pocket_platformer.c:910: vt = idx ? (unsigned int)(VRAM_BG_BASE + idx - 1) : 0u;
      00280F B7               [ 4] 6222 	or	a, a
      002810 28 04            [12] 6223 	jr	Z, 00123$
      002812 06 00            [ 7] 6224 	ld	b, #0x00
      002814 18 02            [12] 6225 	jr	00124$
      002816                       6226 00123$:
      002816 AF               [ 4] 6227 	xor	a, a
      002817 47               [ 4] 6228 	ld	b, a
      002818                       6229 00124$:
      002818 5F               [ 4] 6230 	ld	e, a
      002819 50               [ 4] 6231 	ld	d, b
                                   6232 ;pocket_platformer.c:911: SMS_setNextTileatXY(tx % SCREEN_TILES_W, ty);
      00281A DD 6E FE         [19] 6233 	ld	l, -2 (ix)
                                   6234 ;	spillPairReg hl
                                   6235 ;	spillPairReg hl
      00281D 26 00            [ 7] 6236 	ld	h, #0x00
                                   6237 ;	spillPairReg hl
                                   6238 ;	spillPairReg hl
      00281F 29               [11] 6239 	add	hl, hl
      002820 29               [11] 6240 	add	hl, hl
      002821 29               [11] 6241 	add	hl, hl
      002822 29               [11] 6242 	add	hl, hl
      002823 29               [11] 6243 	add	hl, hl
      002824 DD 7E FD         [19] 6244 	ld	a, -3 (ix)
      002827 E6 1F            [ 7] 6245 	and	a, #0x1f
      002829 4F               [ 4] 6246 	ld	c, a
      00282A 06 00            [ 7] 6247 	ld	b, #0x00
      00282C 09               [11] 6248 	add	hl, bc
      00282D 29               [11] 6249 	add	hl, hl
      00282E 7C               [ 4] 6250 	ld	a, h
      00282F F6 78            [ 7] 6251 	or	a, #0x78
      002831 67               [ 4] 6252 	ld	h, a
                                   6253 ;	spillPairReg hl
                                   6254 ;	spillPairReg hl
      002832 CF               [11] 6255 	rst	#0x08
                                   6256 ;pocket_platformer.c:912: SMS_setTile(vt);
      002833 EB               [ 4] 6257 	ex	de, hl
      002834 DF               [11] 6258 	rst	#0x18
                                   6259 ;pocket_platformer.c:914: if (solid) {
      002835 DD 7E FA         [19] 6260 	ld	a, -6 (ix)
      002838 B7               [ 4] 6261 	or	a, a
      002839 CAr80r29         [10] 6262 	jp	Z, 00114$
                                   6263 ;pocket_platformer.c:915: long px = player.x >> 8, py = player.y >> 8;
      00283C ED 5Br0Cr00      [20] 6264 	ld	de, (#_player + 0)
      002840 2Ar0Er00         [16] 6265 	ld	hl, (#_player + 2)
      002843 06 08            [ 7] 6266 	ld	b, #0x08
      002845                       6267 00198$:
      002845 CB 2C            [ 8] 6268 	sra	h
      002847 CB 1D            [ 8] 6269 	rr	l
      002849 CB 1A            [ 8] 6270 	rr	d
      00284B CB 1B            [ 8] 6271 	rr	e
      00284D 10 F6            [13] 6272 	djnz	00198$
      00284F 33               [ 6] 6273 	inc	sp
      002850 33               [ 6] 6274 	inc	sp
      002851 D5               [11] 6275 	push	de
      002852 DD 75 ED         [19] 6276 	ld	-19 (ix), l
      002855 DD 74 EE         [19] 6277 	ld	-18 (ix), h
      002858 ED 5Br10r00      [20] 6278 	ld	de, (#(_player + 4) + 0)
      00285C 2Ar12r00         [16] 6279 	ld	hl, (#(_player + 4) + 2)
      00285F 06 08            [ 7] 6280 	ld	b, #0x08
      002861                       6281 00200$:
      002861 CB 2C            [ 8] 6282 	sra	h
      002863 CB 1D            [ 8] 6283 	rr	l
      002865 CB 1A            [ 8] 6284 	rr	d
      002867 CB 1B            [ 8] 6285 	rr	e
      002869 10 F6            [13] 6286 	djnz	00200$
      00286B DD 73 EF         [19] 6287 	ld	-17 (ix), e
      00286E DD 72 F0         [19] 6288 	ld	-16 (ix), d
      002871 DD 75 F1         [19] 6289 	ld	-15 (ix), l
      002874 DD 74 F2         [19] 6290 	ld	-14 (ix), h
                                   6291 ;pocket_platformer.c:916: long bx = (long)tx * TILE_SIZE, by = (long)ty * TILE_SIZE;
      002877 DD 6E FD         [19] 6292 	ld	l, -3 (ix)
                                   6293 ;	spillPairReg hl
                                   6294 ;	spillPairReg hl
                                   6295 ;	spillPairReg hl
                                   6296 ;	spillPairReg hl
      00287A AF               [ 4] 6297 	xor	a, a
      00287B 67               [ 4] 6298 	ld	h, a
      00287C 4F               [ 4] 6299 	ld	c, a
      00287D 06 03            [ 7] 6300 	ld	b, #0x03
      00287F                       6301 00202$:
      00287F 29               [11] 6302 	add	hl, hl
      002880 8F               [ 4] 6303 	adc	a, a
      002881 CB 11            [ 8] 6304 	rl	c
      002883 10 FA            [13] 6305 	djnz	00202$
      002885 DD 75 F3         [19] 6306 	ld	-13 (ix), l
      002888 DD 74 F4         [19] 6307 	ld	-12 (ix), h
      00288B DD 77 F5         [19] 6308 	ld	-11 (ix), a
      00288E DD 71 F6         [19] 6309 	ld	-10 (ix), c
      002891 DD 6E FE         [19] 6310 	ld	l, -2 (ix)
                                   6311 ;	spillPairReg hl
                                   6312 ;	spillPairReg hl
                                   6313 ;	spillPairReg hl
                                   6314 ;	spillPairReg hl
      002894 AF               [ 4] 6315 	xor	a, a
      002895 67               [ 4] 6316 	ld	h, a
      002896 4F               [ 4] 6317 	ld	c, a
      002897 06 03            [ 7] 6318 	ld	b, #0x03
      002899                       6319 00204$:
      002899 29               [11] 6320 	add	hl, hl
      00289A 8F               [ 4] 6321 	adc	a, a
      00289B CB 11            [ 8] 6322 	rl	c
      00289D 10 FA            [13] 6323 	djnz	00204$
      00289F DD 75 F7         [19] 6324 	ld	-9 (ix), l
      0028A2 DD 74 F8         [19] 6325 	ld	-8 (ix), h
      0028A5 DD 77 F9         [19] 6326 	ld	-7 (ix), a
      0028A8 DD 71 FA         [19] 6327 	ld	-6 (ix), c
                                   6328 ;pocket_platformer.c:917: if (px + PLAYER_W > bx && px < bx + TILE_SIZE &&
      0028AB DD 7E EB         [19] 6329 	ld	a, -21 (ix)
      0028AE C6 06            [ 7] 6330 	add	a, #0x06
      0028B0 4F               [ 4] 6331 	ld	c, a
      0028B1 DD 7E EC         [19] 6332 	ld	a, -20 (ix)
      0028B4 CE 00            [ 7] 6333 	adc	a, #0x00
      0028B6 47               [ 4] 6334 	ld	b, a
      0028B7 DD 7E ED         [19] 6335 	ld	a, -19 (ix)
      0028BA CE 00            [ 7] 6336 	adc	a, #0x00
      0028BC 5F               [ 4] 6337 	ld	e, a
      0028BD DD 7E EE         [19] 6338 	ld	a, -18 (ix)
      0028C0 CE 00            [ 7] 6339 	adc	a, #0x00
      0028C2 57               [ 4] 6340 	ld	d, a
      0028C3 DD 7E F3         [19] 6341 	ld	a, -13 (ix)
      0028C6 91               [ 4] 6342 	sub	a, c
      0028C7 DD 7E F4         [19] 6343 	ld	a, -12 (ix)
      0028CA 98               [ 4] 6344 	sbc	a, b
      0028CB DD 7E F5         [19] 6345 	ld	a, -11 (ix)
      0028CE 9B               [ 4] 6346 	sbc	a, e
      0028CF DD 7E F6         [19] 6347 	ld	a, -10 (ix)
      0028D2 9A               [ 4] 6348 	sbc	a, d
      0028D3 E2rD8r28         [10] 6349 	jp	PO, 00206$
      0028D6 EE 80            [ 7] 6350 	xor	a, #0x80
      0028D8                       6351 00206$:
      0028D8 F2r80r29         [10] 6352 	jp	P, 00114$
      0028DB DD 7E F3         [19] 6353 	ld	a, -13 (ix)
      0028DE C6 08            [ 7] 6354 	add	a, #0x08
      0028E0 DD 77 FB         [19] 6355 	ld	-5 (ix), a
      0028E3 DD 7E F4         [19] 6356 	ld	a, -12 (ix)
      0028E6 CE 00            [ 7] 6357 	adc	a, #0x00
      0028E8 DD 77 FC         [19] 6358 	ld	-4 (ix), a
      0028EB DD 7E F5         [19] 6359 	ld	a, -11 (ix)
      0028EE CE 00            [ 7] 6360 	adc	a, #0x00
      0028F0 DD 77 FD         [19] 6361 	ld	-3 (ix), a
      0028F3 DD 7E F6         [19] 6362 	ld	a, -10 (ix)
      0028F6 CE 00            [ 7] 6363 	adc	a, #0x00
      0028F8 DD 77 FE         [19] 6364 	ld	-2 (ix), a
      0028FB DD 7E EB         [19] 6365 	ld	a, -21 (ix)
      0028FE DD 96 FB         [19] 6366 	sub	a, -5 (ix)
      002901 DD 7E EC         [19] 6367 	ld	a, -20 (ix)
      002904 DD 9E FC         [19] 6368 	sbc	a, -4 (ix)
      002907 DD 7E ED         [19] 6369 	ld	a, -19 (ix)
      00290A DD 9E FD         [19] 6370 	sbc	a, -3 (ix)
      00290D DD 7E EE         [19] 6371 	ld	a, -18 (ix)
      002910 DD 9E FE         [19] 6372 	sbc	a, -2 (ix)
      002913 E2r18r29         [10] 6373 	jp	PO, 00207$
      002916 EE 80            [ 7] 6374 	xor	a, #0x80
      002918                       6375 00207$:
      002918 F2r80r29         [10] 6376 	jp	P, 00114$
                                   6377 ;pocket_platformer.c:918: py + PLAYER_H > by && py < by + TILE_SIZE)
      00291B DD 7E EF         [19] 6378 	ld	a, -17 (ix)
      00291E C6 08            [ 7] 6379 	add	a, #0x08
      002920 4F               [ 4] 6380 	ld	c, a
      002921 DD 7E F0         [19] 6381 	ld	a, -16 (ix)
      002924 CE 00            [ 7] 6382 	adc	a, #0x00
      002926 47               [ 4] 6383 	ld	b, a
      002927 DD 7E F1         [19] 6384 	ld	a, -15 (ix)
      00292A CE 00            [ 7] 6385 	adc	a, #0x00
      00292C 5F               [ 4] 6386 	ld	e, a
      00292D DD 7E F2         [19] 6387 	ld	a, -14 (ix)
      002930 CE 00            [ 7] 6388 	adc	a, #0x00
      002932 57               [ 4] 6389 	ld	d, a
      002933 DD 7E F7         [19] 6390 	ld	a, -9 (ix)
      002936 91               [ 4] 6391 	sub	a, c
      002937 DD 7E F8         [19] 6392 	ld	a, -8 (ix)
      00293A 98               [ 4] 6393 	sbc	a, b
      00293B DD 7E F9         [19] 6394 	ld	a, -7 (ix)
      00293E 9B               [ 4] 6395 	sbc	a, e
      00293F DD 7E FA         [19] 6396 	ld	a, -6 (ix)
      002942 9A               [ 4] 6397 	sbc	a, d
      002943 E2r48r29         [10] 6398 	jp	PO, 00208$
      002946 EE 80            [ 7] 6399 	xor	a, #0x80
      002948                       6400 00208$:
      002948 F2r80r29         [10] 6401 	jp	P, 00114$
      00294B DD 7E F7         [19] 6402 	ld	a, -9 (ix)
      00294E C6 08            [ 7] 6403 	add	a, #0x08
      002950 4F               [ 4] 6404 	ld	c, a
      002951 DD 7E F8         [19] 6405 	ld	a, -8 (ix)
      002954 CE 00            [ 7] 6406 	adc	a, #0x00
      002956 47               [ 4] 6407 	ld	b, a
      002957 DD 7E F9         [19] 6408 	ld	a, -7 (ix)
      00295A CE 00            [ 7] 6409 	adc	a, #0x00
      00295C 5F               [ 4] 6410 	ld	e, a
      00295D DD 7E FA         [19] 6411 	ld	a, -6 (ix)
      002960 CE 00            [ 7] 6412 	adc	a, #0x00
      002962 57               [ 4] 6413 	ld	d, a
      002963 DD 7E EF         [19] 6414 	ld	a, -17 (ix)
      002966 91               [ 4] 6415 	sub	a, c
      002967 DD 7E F0         [19] 6416 	ld	a, -16 (ix)
      00296A 98               [ 4] 6417 	sbc	a, b
      00296B DD 7E F1         [19] 6418 	ld	a, -15 (ix)
      00296E 9B               [ 4] 6419 	sbc	a, e
      00296F DD 7E F2         [19] 6420 	ld	a, -14 (ix)
      002972 9A               [ 4] 6421 	sbc	a, d
      002973 E2r78r29         [10] 6422 	jp	PO, 00209$
      002976 EE 80            [ 7] 6423 	xor	a, #0x80
      002978                       6424 00209$:
      002978 F2r80r29         [10] 6425 	jp	P, 00114$
                                   6426 ;pocket_platformer.c:919: player_died = 1;
      00297B 21rB1r00         [10] 6427 	ld	hl, #_player_died
      00297E 36 01            [10] 6428 	ld	(hl), #0x01
      002980                       6429 00114$:
                                   6430 ;pocket_platformer.c:900: for (i = 0; i < vp_block_count; i++) {
      002980 DD 34 FF         [23] 6431 	inc	-1 (ix)
      002983 C3r5Cr27         [10] 6432 	jp	00113$
      002986                       6433 00115$:
                                   6434 ;pocket_platformer.c:922: }
      002986 DD F9            [10] 6435 	ld	sp, ix
      002988 DD E1            [14] 6436 	pop	ix
      00298A C9               [10] 6437 	ret
                                   6438 ;pocket_platformer.c:925: static unsigned char rb_is_passable(unsigned char tx, unsigned char ty) {
                                   6439 ;	---------------------------------
                                   6440 ; Function rb_is_passable
                                   6441 ; ---------------------------------
      00298B                       6442 _rb_is_passable:
      00298B DD E5            [15] 6443 	push	ix
      00298D DD 21 00 00      [14] 6444 	ld	ix,#0
      002991 DD 39            [15] 6445 	add	ix,sp
      002993 F5               [11] 6446 	push	af
      002994 DD 77 FF         [19] 6447 	ld	-1 (ix), a
      002997 DD 75 FE         [19] 6448 	ld	-2 (ix), l
                                   6449 ;pocket_platformer.c:927: for (i = 0; i < rb_block_count; i++) {
      00299A 0E 00            [ 7] 6450 	ld	c, #0x00
      00299C                       6451 00106$:
      00299C 21rE4r01         [10] 6452 	ld	hl, #_rb_block_count
      00299F 79               [ 4] 6453 	ld	a, c
      0029A0 96               [ 7] 6454 	sub	a, (hl)
      0029A1 30 34            [12] 6455 	jr	NC, 00104$
                                   6456 ;pocket_platformer.c:928: if (rb_blocks[i].tx == tx && rb_blocks[i].ty == ty) {
      0029A3 11r44r01         [10] 6457 	ld	de, #_rb_blocks+0
      0029A6 06 00            [ 7] 6458 	ld	b, #0x00
      0029A8 69               [ 4] 6459 	ld	l, c
      0029A9 60               [ 4] 6460 	ld	h, b
      0029AA 29               [11] 6461 	add	hl, hl
      0029AB 09               [11] 6462 	add	hl, bc
      0029AC 19               [11] 6463 	add	hl, de
      0029AD EB               [ 4] 6464 	ex	de, hl
      0029AE 1A               [ 7] 6465 	ld	a, (de)
      0029AF 47               [ 4] 6466 	ld	b, a
      0029B0 DD 7E FF         [19] 6467 	ld	a, -1 (ix)
      0029B3 90               [ 4] 6468 	sub	a, b
      0029B4 20 1E            [12] 6469 	jr	NZ, 00107$
      0029B6 6B               [ 4] 6470 	ld	l, e
                                   6471 ;	spillPairReg hl
                                   6472 ;	spillPairReg hl
      0029B7 62               [ 4] 6473 	ld	h, d
                                   6474 ;	spillPairReg hl
                                   6475 ;	spillPairReg hl
      0029B8 23               [ 6] 6476 	inc	hl
      0029B9 DD 7E FE         [19] 6477 	ld	a,-2 (ix)
      0029BC 96               [ 7] 6478 	sub	a,(hl)
      0029BD 20 15            [12] 6479 	jr	NZ, 00107$
                                   6480 ;pocket_platformer.c:930: return rb_blocks[i].is_red ? !rb_red_active : rb_red_active;
      0029BF 13               [ 6] 6481 	inc	de
      0029C0 13               [ 6] 6482 	inc	de
      0029C1 1A               [ 7] 6483 	ld	a, (de)
      0029C2 B7               [ 4] 6484 	or	a, a
      0029C3 28 0A            [12] 6485 	jr	Z, 00110$
      0029C5 3ArE6r01         [13] 6486 	ld	a, (_rb_red_active+0)
      0029C8 D6 01            [ 7] 6487 	sub	a,#0x01
      0029CA 3E 00            [ 7] 6488 	ld	a, #0x00
      0029CC 17               [ 4] 6489 	rla
      0029CD 18 09            [12] 6490 	jr	00108$
      0029CF                       6491 00110$:
      0029CF 3ArE6r01         [13] 6492 	ld	a, (_rb_red_active+0)
      0029D2 18 04            [12] 6493 	jr	00108$
      0029D4                       6494 00107$:
                                   6495 ;pocket_platformer.c:927: for (i = 0; i < rb_block_count; i++) {
      0029D4 0C               [ 4] 6496 	inc	c
      0029D5 18 C5            [12] 6497 	jr	00106$
      0029D7                       6498 00104$:
                                   6499 ;pocket_platformer.c:933: return 0;
      0029D7 AF               [ 4] 6500 	xor	a, a
      0029D8                       6501 00108$:
                                   6502 ;pocket_platformer.c:934: }
      0029D8 DD F9            [10] 6503 	ld	sp, ix
      0029DA DD E1            [14] 6504 	pop	ix
      0029DC C9               [10] 6505 	ret
                                   6506 ;pocket_platformer.c:936: static unsigned int rb_vram_for_block(unsigned char is_red, unsigned char solid) {
                                   6507 ;	---------------------------------
                                   6508 ; Function rb_vram_for_block
                                   6509 ; ---------------------------------
      0029DD                       6510 _rb_vram_for_block:
                                   6511 ;pocket_platformer.c:939: idx = solid ? res_header->red_solid_vram_idx  : res_header->red_ghost_vram_idx;
                                   6512 ;pocket_platformer.c:938: if (is_red)
      0029DD ED 5Br00r00      [20] 6513 	ld	de, (_res_header)
      0029E1 B7               [ 4] 6514 	or	a, a
      0029E2 28 12            [12] 6515 	jr	Z, 00102$
                                   6516 ;pocket_platformer.c:939: idx = solid ? res_header->red_solid_vram_idx  : res_header->red_ghost_vram_idx;
      0029E4 7D               [ 4] 6517 	ld	a, l
      0029E5 B7               [ 4] 6518 	or	a, a
      0029E6 28 07            [12] 6519 	jr	Z, 00106$
      0029E8 21 09 00         [10] 6520 	ld	hl, #9
      0029EB 19               [11] 6521 	add	hl, de
      0029EC 7E               [ 7] 6522 	ld	a, (hl)
      0029ED 18 17            [12] 6523 	jr	00103$
      0029EF                       6524 00106$:
      0029EF 21 0A 00         [10] 6525 	ld	hl, #10
      0029F2 19               [11] 6526 	add	hl, de
      0029F3 7E               [ 7] 6527 	ld	a, (hl)
      0029F4 18 10            [12] 6528 	jr	00103$
      0029F6                       6529 00102$:
                                   6530 ;pocket_platformer.c:941: idx = solid ? res_header->blue_solid_vram_idx : res_header->blue_ghost_vram_idx;
      0029F6 7D               [ 4] 6531 	ld	a, l
      0029F7 B7               [ 4] 6532 	or	a, a
      0029F8 28 07            [12] 6533 	jr	Z, 00108$
      0029FA 21 0B 00         [10] 6534 	ld	hl, #11
      0029FD 19               [11] 6535 	add	hl, de
      0029FE 7E               [ 7] 6536 	ld	a, (hl)
      0029FF 18 05            [12] 6537 	jr	00109$
      002A01                       6538 00108$:
      002A01 21 0C 00         [10] 6539 	ld	hl, #12
      002A04 19               [11] 6540 	add	hl, de
      002A05 7E               [ 7] 6541 	ld	a, (hl)
      002A06                       6542 00109$:
      002A06                       6543 00103$:
                                   6544 ;pocket_platformer.c:942: return idx ? (unsigned int)(VRAM_BG_BASE + idx - 1) : 0u;
      002A06 B7               [ 4] 6545 	or	a, a
      002A07 28 04            [12] 6546 	jr	Z, 00110$
      002A09 16 00            [ 7] 6547 	ld	d, #0x00
      002A0B 5F               [ 4] 6548 	ld	e, a
      002A0C C9               [10] 6549 	ret
      002A0D                       6550 00110$:
      002A0D 11 00 00         [10] 6551 	ld	de, #0x0000
                                   6552 ;pocket_platformer.c:943: }
      002A10 C9               [10] 6553 	ret
                                   6554 ;pocket_platformer.c:946: static void rb_redraw_all(void) {
                                   6555 ;	---------------------------------
                                   6556 ; Function rb_redraw_all
                                   6557 ; ---------------------------------
      002A11                       6558 _rb_redraw_all:
      002A11 DD E5            [15] 6559 	push	ix
      002A13 DD 21 00 00      [14] 6560 	ld	ix,#0
      002A17 DD 39            [15] 6561 	add	ix,sp
      002A19 F5               [11] 6562 	push	af
                                   6563 ;pocket_platformer.c:948: for (i = 0; i < rb_block_count; i++) {
      002A1A DD 36 FF 00      [19] 6564 	ld	-1 (ix), #0x00
      002A1E                       6565 00103$:
      002A1E 21rE4r01         [10] 6566 	ld	hl, #_rb_block_count
      002A21 DD 7E FF         [19] 6567 	ld	a, -1 (ix)
      002A24 96               [ 7] 6568 	sub	a, (hl)
      002A25 30 51            [12] 6569 	jr	NC, 00105$
                                   6570 ;pocket_platformer.c:949: unsigned char tx = rb_blocks[i].tx;
      002A27 DD 4E FF         [19] 6571 	ld	c, -1 (ix)
      002A2A 06 00            [ 7] 6572 	ld	b, #0x00
      002A2C 69               [ 4] 6573 	ld	l, c
      002A2D 60               [ 4] 6574 	ld	h, b
      002A2E 29               [11] 6575 	add	hl, hl
      002A2F 09               [11] 6576 	add	hl, bc
      002A30 EB               [ 4] 6577 	ex	de, hl
      002A31 21r44r01         [10] 6578 	ld	hl, #_rb_blocks
      002A34 19               [11] 6579 	add	hl, de
      002A35 EB               [ 4] 6580 	ex	de, hl
      002A36 1A               [ 7] 6581 	ld	a, (de)
      002A37 4F               [ 4] 6582 	ld	c, a
                                   6583 ;pocket_platformer.c:950: unsigned char ty = rb_blocks[i].ty;
      002A38 6B               [ 4] 6584 	ld	l, e
                                   6585 ;	spillPairReg hl
                                   6586 ;	spillPairReg hl
      002A39 62               [ 4] 6587 	ld	h, d
                                   6588 ;	spillPairReg hl
                                   6589 ;	spillPairReg hl
      002A3A 23               [ 6] 6590 	inc	hl
      002A3B 7E               [ 7] 6591 	ld	a, (hl)
      002A3C DD 77 FE         [19] 6592 	ld	-2 (ix), a
                                   6593 ;pocket_platformer.c:951: unsigned char solid = rb_blocks[i].is_red ? rb_red_active : !rb_red_active;
      002A3F 13               [ 6] 6594 	inc	de
      002A40 13               [ 6] 6595 	inc	de
      002A41 1A               [ 7] 6596 	ld	a, (de)
      002A42 47               [ 4] 6597 	ld	b, a
      002A43 B7               [ 4] 6598 	or	a, a
      002A44 28 05            [12] 6599 	jr	Z, 00107$
      002A46 3ArE6r01         [13] 6600 	ld	a, (_rb_red_active+0)
      002A49 18 08            [12] 6601 	jr	00108$
      002A4B                       6602 00107$:
      002A4B 3ArE6r01         [13] 6603 	ld	a, (_rb_red_active+0)
      002A4E D6 01            [ 7] 6604 	sub	a,#0x01
      002A50 3E 00            [ 7] 6605 	ld	a, #0x00
      002A52 17               [ 4] 6606 	rla
      002A53                       6607 00108$:
      002A53 6F               [ 4] 6608 	ld	l, a
                                   6609 ;	spillPairReg hl
                                   6610 ;	spillPairReg hl
                                   6611 ;pocket_platformer.c:952: unsigned int vt = rb_vram_for_block(rb_blocks[i].is_red, solid);
      002A54 C5               [11] 6612 	push	bc
      002A55 78               [ 4] 6613 	ld	a, b
      002A56 CDrDDr29         [17] 6614 	call	_rb_vram_for_block
      002A59 C1               [10] 6615 	pop	bc
                                   6616 ;pocket_platformer.c:953: SMS_setNextTileatXY(tx % SCREEN_TILES_W, ty);
      002A5A DD 6E FE         [19] 6617 	ld	l, -2 (ix)
                                   6618 ;	spillPairReg hl
                                   6619 ;	spillPairReg hl
      002A5D 26 00            [ 7] 6620 	ld	h, #0x00
                                   6621 ;	spillPairReg hl
                                   6622 ;	spillPairReg hl
      002A5F 29               [11] 6623 	add	hl, hl
      002A60 29               [11] 6624 	add	hl, hl
      002A61 29               [11] 6625 	add	hl, hl
      002A62 29               [11] 6626 	add	hl, hl
      002A63 29               [11] 6627 	add	hl, hl
      002A64 79               [ 4] 6628 	ld	a, c
      002A65 E6 1F            [ 7] 6629 	and	a, #0x1f
      002A67 06 00            [ 7] 6630 	ld	b, #0x00
      002A69 4F               [ 4] 6631 	ld	c, a
      002A6A 09               [11] 6632 	add	hl, bc
      002A6B 29               [11] 6633 	add	hl, hl
      002A6C 7C               [ 4] 6634 	ld	a, h
      002A6D F6 78            [ 7] 6635 	or	a, #0x78
      002A6F 67               [ 4] 6636 	ld	h, a
                                   6637 ;	spillPairReg hl
                                   6638 ;	spillPairReg hl
      002A70 CF               [11] 6639 	rst	#0x08
                                   6640 ;pocket_platformer.c:954: SMS_setTile(vt);
      002A71 EB               [ 4] 6641 	ex	de, hl
      002A72 DF               [11] 6642 	rst	#0x18
                                   6643 ;pocket_platformer.c:948: for (i = 0; i < rb_block_count; i++) {
      002A73 DD 34 FF         [23] 6644 	inc	-1 (ix)
      002A76 18 A6            [12] 6645 	jr	00103$
      002A78                       6646 00105$:
                                   6647 ;pocket_platformer.c:956: }
      002A78 DD F9            [10] 6648 	ld	sp, ix
      002A7A DD E1            [14] 6649 	pop	ix
      002A7C C9               [10] 6650 	ret
                                   6651 ;pocket_platformer.c:958: static void check_rb_switch(void) {
                                   6652 ;	---------------------------------
                                   6653 ; Function check_rb_switch
                                   6654 ; ---------------------------------
      002A7D                       6655 _check_rb_switch:
                                   6656 ;pocket_platformer.c:960: if (rb_switch_locked && player.vy > 0) rb_switch_locked = 0;
      002A7D 3ArE7r01         [13] 6657 	ld	a, (_rb_switch_locked+0)
      002A80 B7               [ 4] 6658 	or	a, a
      002A81 C8               [11] 6659 	ret	Z
      002A82 ED 4Br18r00      [20] 6660 	ld	bc, (#(_player + 12) + 0)
      002A86 2Ar1Ar00         [16] 6661 	ld	hl, (#(_player + 12) + 2)
      002A89 AF               [ 4] 6662 	xor	a, a
      002A8A B9               [ 4] 6663 	cp	a, c
      002A8B 98               [ 4] 6664 	sbc	a, b
      002A8C 3E 00            [ 7] 6665 	ld	a, #0x00
      002A8E 9D               [ 4] 6666 	sbc	a, l
      002A8F 3E 00            [ 7] 6667 	ld	a, #0x00
      002A91 9C               [ 4] 6668 	sbc	a, h
      002A92 E2r97r2A         [10] 6669 	jp	PO, 00116$
      002A95 EE 80            [ 7] 6670 	xor	a, #0x80
      002A97                       6671 00116$:
      002A97 F0               [11] 6672 	ret	P
      002A98 21rE7r01         [10] 6673 	ld	hl, #_rb_switch_locked
      002A9B 36 00            [10] 6674 	ld	(hl), #0x00
                                   6675 ;pocket_platformer.c:961: }
      002A9D C9               [10] 6676 	ret
                                   6677 ;pocket_platformer.c:963: static void check_disp_touch(void) {
                                   6678 ;	---------------------------------
                                   6679 ; Function check_disp_touch
                                   6680 ; ---------------------------------
      002A9E                       6681 _check_disp_touch:
      002A9E DD E5            [15] 6682 	push	ix
      002AA0 DD 21 00 00      [14] 6683 	ld	ix,#0
      002AA4 DD 39            [15] 6684 	add	ix,sp
      002AA6 21 EB FF         [10] 6685 	ld	hl, #-21
      002AA9 39               [11] 6686 	add	hl, sp
      002AAA F9               [ 6] 6687 	ld	sp, hl
                                   6688 ;pocket_platformer.c:968: long px = player.x >> 8, py = player.y >> 8;
      002AAB ED 5Br0Cr00      [20] 6689 	ld	de, (#_player + 0)
      002AAF 2Ar0Er00         [16] 6690 	ld	hl, (#_player + 2)
      002AB2 06 08            [ 7] 6691 	ld	b, #0x08
      002AB4                       6692 00250$:
      002AB4 CB 2C            [ 8] 6693 	sra	h
      002AB6 CB 1D            [ 8] 6694 	rr	l
      002AB8 CB 1A            [ 8] 6695 	rr	d
      002ABA CB 1B            [ 8] 6696 	rr	e
      002ABC 10 F6            [13] 6697 	djnz	00250$
      002ABE DD 73 F5         [19] 6698 	ld	-11 (ix), e
      002AC1 DD 72 F6         [19] 6699 	ld	-10 (ix), d
      002AC4 DD 75 F7         [19] 6700 	ld	-9 (ix), l
      002AC7 DD 74 F8         [19] 6701 	ld	-8 (ix), h
      002ACA 2Ar10r00         [16] 6702 	ld	hl, (#(_player + 4) + 0)
      002ACD ED 5Br12r00      [20] 6703 	ld	de, (#(_player + 4) + 2)
      002AD1 06 08            [ 7] 6704 	ld	b, #0x08
      002AD3                       6705 00252$:
      002AD3 CB 2A            [ 8] 6706 	sra	d
      002AD5 CB 1B            [ 8] 6707 	rr	e
      002AD7 CB 1C            [ 8] 6708 	rr	h
      002AD9 CB 1D            [ 8] 6709 	rr	l
      002ADB 10 F6            [13] 6710 	djnz	00252$
                                   6711 ;pocket_platformer.c:969: unsigned char tx_l = (unsigned char)(px / TILE_SIZE);
      002ADD DD 4E F5         [19] 6712 	ld	c, -11 (ix)
      002AE0 DD 46 F6         [19] 6713 	ld	b, -10 (ix)
      002AE3 FD E5            [15] 6714 	push	iy
      002AE5 E3               [19] 6715 	ex	(sp), hl
      002AE6 DD 6E F7         [19] 6716 	ld	l, -9 (ix)
                                   6717 ;	spillPairReg hl
                                   6718 ;	spillPairReg hl
      002AE9 E3               [19] 6719 	ex	(sp), hl
      002AEA E3               [19] 6720 	ex	(sp), hl
      002AEB DD 66 F8         [19] 6721 	ld	h, -8 (ix)
                                   6722 ;	spillPairReg hl
                                   6723 ;	spillPairReg hl
      002AEE E3               [19] 6724 	ex	(sp), hl
      002AEF FD E1            [14] 6725 	pop	iy
      002AF1 DD CB F8 7E      [20] 6726 	bit	7, -8 (ix)
      002AF5 28 24            [12] 6727 	jr	Z, 00129$
      002AF7 DD 7E F5         [19] 6728 	ld	a, -11 (ix)
      002AFA C6 07            [ 7] 6729 	add	a, #0x07
      002AFC 4F               [ 4] 6730 	ld	c, a
      002AFD DD 7E F6         [19] 6731 	ld	a, -10 (ix)
      002B00 CE 00            [ 7] 6732 	adc	a, #0x00
      002B02 47               [ 4] 6733 	ld	b, a
      002B03 DD 7E F7         [19] 6734 	ld	a, -9 (ix)
      002B06 CE 00            [ 7] 6735 	adc	a, #0x00
      002B08 FD E5            [15] 6736 	push	iy
      002B0A DD 77 E9         [19] 6737 	ld	-23 (ix), a
      002B0D FD E1            [14] 6738 	pop	iy
      002B0F DD 7E F8         [19] 6739 	ld	a, -8 (ix)
      002B12 CE 00            [ 7] 6740 	adc	a, #0x00
      002B14 FD E5            [15] 6741 	push	iy
      002B16 DD 77 EA         [19] 6742 	ld	-22 (ix), a
      002B19 FD E1            [14] 6743 	pop	iy
      002B1B                       6744 00129$:
      002B1B CB 38            [ 8] 6745 	srl	b
      002B1D CB 19            [ 8] 6746 	rr	c
      002B1F CB 38            [ 8] 6747 	srl	b
      002B21 CB 19            [ 8] 6748 	rr	c
      002B23 CB 38            [ 8] 6749 	srl	b
      002B25 CB 19            [ 8] 6750 	rr	c
      002B27 DD 71 FD         [19] 6751 	ld	-3 (ix), c
                                   6752 ;pocket_platformer.c:970: unsigned char tx_r = (unsigned char)((px + PLAYER_W - 1) / TILE_SIZE);
      002B2A DD 7E F5         [19] 6753 	ld	a, -11 (ix)
      002B2D C6 05            [ 7] 6754 	add	a, #0x05
      002B2F DD 77 F9         [19] 6755 	ld	-7 (ix), a
      002B32 DD 7E F6         [19] 6756 	ld	a, -10 (ix)
      002B35 CE 00            [ 7] 6757 	adc	a, #0x00
      002B37 DD 77 FA         [19] 6758 	ld	-6 (ix), a
      002B3A DD 7E F7         [19] 6759 	ld	a, -9 (ix)
      002B3D CE 00            [ 7] 6760 	adc	a, #0x00
      002B3F DD 77 FB         [19] 6761 	ld	-5 (ix), a
      002B42 DD 7E F8         [19] 6762 	ld	a, -8 (ix)
      002B45 CE 00            [ 7] 6763 	adc	a, #0x00
      002B47 DD 77 FC         [19] 6764 	ld	-4 (ix), a
      002B4A DD 4E F9         [19] 6765 	ld	c, -7 (ix)
      002B4D DD 46 FA         [19] 6766 	ld	b, -6 (ix)
      002B50 FD E5            [15] 6767 	push	iy
      002B52 E3               [19] 6768 	ex	(sp), hl
      002B53 DD 6E FB         [19] 6769 	ld	l, -5 (ix)
                                   6770 ;	spillPairReg hl
                                   6771 ;	spillPairReg hl
      002B56 E3               [19] 6772 	ex	(sp), hl
      002B57 E3               [19] 6773 	ex	(sp), hl
      002B58 DD 66 FC         [19] 6774 	ld	h, -4 (ix)
                                   6775 ;	spillPairReg hl
                                   6776 ;	spillPairReg hl
      002B5B E3               [19] 6777 	ex	(sp), hl
      002B5C FD E1            [14] 6778 	pop	iy
      002B5E DD CB FC 7E      [20] 6779 	bit	7, -4 (ix)
      002B62 28 24            [12] 6780 	jr	Z, 00130$
      002B64 DD 7E F9         [19] 6781 	ld	a, -7 (ix)
      002B67 C6 07            [ 7] 6782 	add	a, #0x07
      002B69 4F               [ 4] 6783 	ld	c, a
      002B6A DD 7E FA         [19] 6784 	ld	a, -6 (ix)
      002B6D CE 00            [ 7] 6785 	adc	a, #0x00
      002B6F 47               [ 4] 6786 	ld	b, a
      002B70 DD 7E FB         [19] 6787 	ld	a, -5 (ix)
      002B73 CE 00            [ 7] 6788 	adc	a, #0x00
      002B75 FD E5            [15] 6789 	push	iy
      002B77 DD 77 E9         [19] 6790 	ld	-23 (ix), a
      002B7A FD E1            [14] 6791 	pop	iy
      002B7C DD 7E FC         [19] 6792 	ld	a, -4 (ix)
      002B7F CE 00            [ 7] 6793 	adc	a, #0x00
      002B81 FD E5            [15] 6794 	push	iy
      002B83 DD 77 EA         [19] 6795 	ld	-22 (ix), a
      002B86 FD E1            [14] 6796 	pop	iy
      002B88                       6797 00130$:
      002B88 CB 38            [ 8] 6798 	srl	b
      002B8A CB 19            [ 8] 6799 	rr	c
      002B8C CB 38            [ 8] 6800 	srl	b
      002B8E CB 19            [ 8] 6801 	rr	c
      002B90 CB 38            [ 8] 6802 	srl	b
      002B92 CB 19            [ 8] 6803 	rr	c
      002B94 DD 71 FE         [19] 6804 	ld	-2 (ix), c
                                   6805 ;pocket_platformer.c:971: unsigned char ty_body  = (unsigned char)(py / TILE_SIZE);
      002B97 D5               [11] 6806 	push	de
      002B98 FD E1            [14] 6807 	pop	iy
      002B9A 4D               [ 4] 6808 	ld	c, l
      002B9B 44               [ 4] 6809 	ld	b, h
      002B9C CB 7A            [ 8] 6810 	bit	7, d
      002B9E 28 1C            [12] 6811 	jr	Z, 00131$
      002BA0 7D               [ 4] 6812 	ld	a, l
      002BA1 C6 07            [ 7] 6813 	add	a, #0x07
      002BA3 4F               [ 4] 6814 	ld	c, a
      002BA4 7C               [ 4] 6815 	ld	a, h
      002BA5 CE 00            [ 7] 6816 	adc	a, #0x00
      002BA7 47               [ 4] 6817 	ld	b, a
      002BA8 7B               [ 4] 6818 	ld	a, e
      002BA9 CE 00            [ 7] 6819 	adc	a, #0x00
      002BAB FD E5            [15] 6820 	push	iy
      002BAD DD 77 E9         [19] 6821 	ld	-23 (ix), a
      002BB0 FD E1            [14] 6822 	pop	iy
      002BB2 7A               [ 4] 6823 	ld	a, d
      002BB3 CE 00            [ 7] 6824 	adc	a, #0x00
      002BB5 FD E5            [15] 6825 	push	iy
      002BB7 DD 77 EA         [19] 6826 	ld	-22 (ix), a
      002BBA FD E1            [14] 6827 	pop	iy
      002BBC                       6828 00131$:
      002BBC CB 38            [ 8] 6829 	srl	b
      002BBE CB 19            [ 8] 6830 	rr	c
      002BC0 CB 38            [ 8] 6831 	srl	b
      002BC2 CB 19            [ 8] 6832 	rr	c
      002BC4 CB 38            [ 8] 6833 	srl	b
      002BC6 CB 19            [ 8] 6834 	rr	c
      002BC8 DD 71 FF         [19] 6835 	ld	-1 (ix), c
                                   6836 ;pocket_platformer.c:972: unsigned char ty_feet  = (unsigned char)((py + PLAYER_H) / TILE_SIZE); /* tile below feet */
      002BCB C5               [11] 6837 	push	bc
      002BCC 01 08 00         [10] 6838 	ld	bc, #0x0008
      002BCF 09               [11] 6839 	add	hl, bc
      002BD0 C1               [10] 6840 	pop	bc
      002BD1 30 01            [12] 6841 	jr	NC, 00254$
      002BD3 13               [ 6] 6842 	inc	de
      002BD4                       6843 00254$:
      002BD4 D5               [11] 6844 	push	de
      002BD5 FD E1            [14] 6845 	pop	iy
      002BD7 4D               [ 4] 6846 	ld	c, l
      002BD8 44               [ 4] 6847 	ld	b, h
      002BD9 CB 7A            [ 8] 6848 	bit	7, d
      002BDB 28 1A            [12] 6849 	jr	Z, 00132$
      002BDD 01 07 00         [10] 6850 	ld	bc, #0x7
      002BE0 09               [11] 6851 	add	hl,bc
      002BE1 4D               [ 4] 6852 	ld	c, l
      002BE2 44               [ 4] 6853 	ld	b, h
      002BE3 7B               [ 4] 6854 	ld	a, e
      002BE4 CE 00            [ 7] 6855 	adc	a, #0x00
      002BE6 FD E5            [15] 6856 	push	iy
      002BE8 DD 77 E9         [19] 6857 	ld	-23 (ix), a
      002BEB FD E1            [14] 6858 	pop	iy
      002BED 7A               [ 4] 6859 	ld	a, d
      002BEE CE 00            [ 7] 6860 	adc	a, #0x00
      002BF0 FD E5            [15] 6861 	push	iy
      002BF2 DD 77 EA         [19] 6862 	ld	-22 (ix), a
      002BF5 FD E1            [14] 6863 	pop	iy
      002BF7                       6864 00132$:
      002BF7 CB 38            [ 8] 6865 	srl	b
      002BF9 CB 19            [ 8] 6866 	rr	c
      002BFB CB 38            [ 8] 6867 	srl	b
      002BFD CB 19            [ 8] 6868 	rr	c
      002BFF CB 38            [ 8] 6869 	srl	b
      002C01 CB 19            [ 8] 6870 	rr	c
                                   6871 ;pocket_platformer.c:973: unsigned char probes[3][2] = {
      002C03 DD 7E FD         [19] 6872 	ld	a, -3 (ix)
      002C06 DD 77 EF         [19] 6873 	ld	-17 (ix), a
      002C09 DD 71 F0         [19] 6874 	ld	-16 (ix), c
      002C0C DD 7E FE         [19] 6875 	ld	a, -2 (ix)
      002C0F DD 77 F1         [19] 6876 	ld	-15 (ix), a
      002C12 DD 71 F2         [19] 6877 	ld	-14 (ix), c
      002C15 DD 7E FD         [19] 6878 	ld	a, -3 (ix)
      002C18 DD 77 F3         [19] 6879 	ld	-13 (ix), a
      002C1B DD 7E FF         [19] 6880 	ld	a, -1 (ix)
      002C1E DD 77 F4         [19] 6881 	ld	-12 (ix), a
                                   6882 ;pocket_platformer.c:979: for (c = 0; c < 3; c++) {
      002C21 DD 36 FF 00      [19] 6883 	ld	-1 (ix), #0x00
      002C25                       6884 00119$:
                                   6885 ;pocket_platformer.c:980: unsigned char tx = probes[c][0], ty = probes[c][1];
      002C25 DD 6E FF         [19] 6886 	ld	l, -1 (ix)
                                   6887 ;	spillPairReg hl
                                   6888 ;	spillPairReg hl
      002C28 26 00            [ 7] 6889 	ld	h, #0x00
                                   6890 ;	spillPairReg hl
                                   6891 ;	spillPairReg hl
      002C2A 29               [11] 6892 	add	hl, hl
      002C2B 4D               [ 4] 6893 	ld	c, l
      002C2C 44               [ 4] 6894 	ld	b, h
      002C2D 21 04 00         [10] 6895 	ld	hl, #4
      002C30 39               [11] 6896 	add	hl, sp
      002C31 09               [11] 6897 	add	hl, bc
      002C32 7E               [ 7] 6898 	ld	a, (hl)
      002C33 DD 77 FA         [19] 6899 	ld	-6 (ix), a
      002C36 23               [ 6] 6900 	inc	hl
      002C37 7E               [ 7] 6901 	ld	a, (hl)
                                   6902 ;pocket_platformer.c:981: unsigned char t = get_tile(tx, ty);
      002C38 DD 77 FB         [19] 6903 	ld	-5 (ix), a
      002C3B 6F               [ 4] 6904 	ld	l, a
                                   6905 ;	spillPairReg hl
                                   6906 ;	spillPairReg hl
      002C3C DD 7E FA         [19] 6907 	ld	a, -6 (ix)
      002C3F CDr1Er01         [17] 6908 	call	_get_tile
      002C42 DD 77 FC         [19] 6909 	ld	-4 (ix), a
                                   6910 ;pocket_platformer.c:982: if (res_header->disp_vram_idx && t == res_header->disp_vram_idx)
      002C45 2Ar00r00         [16] 6911 	ld	hl, (_res_header)
      002C48 DD 75 FD         [19] 6912 	ld	-3 (ix), l
      002C4B DD 74 FE         [19] 6913 	ld	-2 (ix), h
      002C4E 01 07 00         [10] 6914 	ld	bc,#7
      002C51 09               [11] 6915 	add	hl,bc
      002C52 4E               [ 7] 6916 	ld	c, (hl)
      002C53 79               [ 4] 6917 	ld	a, c
      002C54 B7               [ 4] 6918 	or	a, a
      002C55 28 11            [12] 6919 	jr	Z, 00109$
      002C57 DD 7E FC         [19] 6920 	ld	a, -4 (ix)
      002C5A 91               [ 4] 6921 	sub	a, c
      002C5B 20 0B            [12] 6922 	jr	NZ, 00109$
                                   6923 ;pocket_platformer.c:983: disp_touch(tx, ty);
      002C5D DD 6E FB         [19] 6924 	ld	l, -5 (ix)
                                   6925 ;	spillPairReg hl
                                   6926 ;	spillPairReg hl
      002C60 DD 7E FA         [19] 6927 	ld	a, -6 (ix)
      002C63 CDr88r01         [17] 6928 	call	_disp_touch
      002C66 18 40            [12] 6929 	jr	00120$
      002C68                       6930 00109$:
                                   6931 ;pocket_platformer.c:984: else if (res_header->conn_vram_idx && t == res_header->conn_vram_idx)
      002C68 DD 4E FD         [19] 6932 	ld	c, -3 (ix)
      002C6B DD 46 FE         [19] 6933 	ld	b, -2 (ix)
      002C6E 21 08 00         [10] 6934 	ld	hl, #8
      002C71 09               [11] 6935 	add	hl, bc
      002C72 4E               [ 7] 6936 	ld	c, (hl)
      002C73 79               [ 4] 6937 	ld	a, c
      002C74 B7               [ 4] 6938 	or	a, a
      002C75 28 11            [12] 6939 	jr	Z, 00105$
      002C77 DD 7E FC         [19] 6940 	ld	a, -4 (ix)
      002C7A 91               [ 4] 6941 	sub	a, c
      002C7B 20 0B            [12] 6942 	jr	NZ, 00105$
                                   6943 ;pocket_platformer.c:985: disp_touch_connected(tx, ty);
      002C7D DD 6E FB         [19] 6944 	ld	l, -5 (ix)
                                   6945 ;	spillPairReg hl
                                   6946 ;	spillPairReg hl
      002C80 DD 7E FA         [19] 6947 	ld	a, -6 (ix)
      002C83 CDrD9r01         [17] 6948 	call	_disp_touch_connected
      002C86 18 20            [12] 6949 	jr	00120$
      002C88                       6950 00105$:
                                   6951 ;pocket_platformer.c:987: else if (res_header->fg_disp_vram_idx &&
      002C88 DD 4E FD         [19] 6952 	ld	c, -3 (ix)
      002C8B DD 46 FE         [19] 6953 	ld	b, -2 (ix)
      002C8E 21 25 00         [10] 6954 	ld	hl, #37
      002C91 09               [11] 6955 	add	hl, bc
      002C92 7E               [ 7] 6956 	ld	a, (hl)
      002C93 B7               [ 4] 6957 	or	a, a
      002C94 28 12            [12] 6958 	jr	Z, 00120$
                                   6959 ;pocket_platformer.c:988: t == (res_header->fg_disp_vram_idx | 0x80))
      002C96 4F               [ 4] 6960 	ld	c, a
      002C97 CB F9            [ 8] 6961 	set	7, c
      002C99 DD 7E FC         [19] 6962 	ld	a, -4 (ix)
      002C9C 91               [ 4] 6963 	sub	a, c
      002C9D 20 09            [12] 6964 	jr	NZ, 00120$
                                   6965 ;pocket_platformer.c:989: fg_disp_touch_connected(tx, ty);
      002C9F DD 6E FB         [19] 6966 	ld	l, -5 (ix)
                                   6967 ;	spillPairReg hl
                                   6968 ;	spillPairReg hl
      002CA2 DD 7E FA         [19] 6969 	ld	a, -6 (ix)
      002CA5 CDrD0r02         [17] 6970 	call	_fg_disp_touch_connected
      002CA8                       6971 00120$:
                                   6972 ;pocket_platformer.c:979: for (c = 0; c < 3; c++) {
      002CA8 DD 34 FF         [23] 6973 	inc	-1 (ix)
      002CAB DD 7E FF         [19] 6974 	ld	a, -1 (ix)
      002CAE D6 03            [ 7] 6975 	sub	a, #0x03
      002CB0 DAr25r2C         [10] 6976 	jp	C, 00119$
                                   6977 ;pocket_platformer.c:993: if (res_header->fg_disp_vram_idx) {
      002CB3 FD 2Ar00r00      [20] 6978 	ld	iy, (_res_header)
      002CB7 FD 7E 25         [19] 6979 	ld	a, 37 (iy)
      002CBA DD 77 FF         [19] 6980 	ld	-1 (ix), a
      002CBD B7               [ 4] 6981 	or	a, a
      002CBE CArBCr2E         [10] 6982 	jp	Z, 00127$
                                   6983 ;pocket_platformer.c:994: unsigned char tx_l = (unsigned char)((player.x >> 8) / TILE_SIZE);
      002CC1 11r0Cr00         [10] 6984 	ld	de, #_player
      002CC4 21 11 00         [10] 6985 	ld	hl, #17
      002CC7 39               [11] 6986 	add	hl, sp
      002CC8 EB               [ 4] 6987 	ex	de, hl
      002CC9 01 04 00         [10] 6988 	ld	bc, #0x0004
      002CCC ED B0            [21] 6989 	ldir
      002CCE DD 7E FC         [19] 6990 	ld	a, -4 (ix)
      002CD1 DD 77 EB         [19] 6991 	ld	-21 (ix), a
      002CD4 DD 7E FD         [19] 6992 	ld	a, -3 (ix)
      002CD7 DD 77 EC         [19] 6993 	ld	-20 (ix), a
      002CDA DD 7E FE         [19] 6994 	ld	a, -2 (ix)
      002CDD DD 77 ED         [19] 6995 	ld	-19 (ix), a
      002CE0 DD 7E FF         [19] 6996 	ld	a, -1 (ix)
      002CE3 DD 77 EE         [19] 6997 	ld	-18 (ix), a
      002CE6 06 08            [ 7] 6998 	ld	b, #0x08
      002CE8                       6999 00261$:
      002CE8 DD CB EE 2E      [23] 7000 	sra	-18 (ix)
      002CEC DD CB ED 1E      [23] 7001 	rr	-19 (ix)
      002CF0 DD CB EC 1E      [23] 7002 	rr	-20 (ix)
      002CF4 DD CB EB 1E      [23] 7003 	rr	-21 (ix)
      002CF8 10 EE            [13] 7004 	djnz	00261$
      002CFA 21 11 00         [10] 7005 	ld	hl, #17
      002CFD 39               [11] 7006 	add	hl, sp
      002CFE EB               [ 4] 7007 	ex	de, hl
      002CFF 21 00 00         [10] 7008 	ld	hl, #0
      002D02 39               [11] 7009 	add	hl, sp
      002D03 01 04 00         [10] 7010 	ld	bc, #4
      002D06 ED B0            [21] 7011 	ldir
      002D08 DD CB EE 7E      [20] 7012 	bit	7, -18 (ix)
      002D0C 28 20            [12] 7013 	jr	Z, 00133$
      002D0E DD 7E EB         [19] 7014 	ld	a, -21 (ix)
      002D11 C6 07            [ 7] 7015 	add	a, #0x07
      002D13 DD 77 FC         [19] 7016 	ld	-4 (ix), a
      002D16 DD 7E EC         [19] 7017 	ld	a, -20 (ix)
      002D19 CE 00            [ 7] 7018 	adc	a, #0x00
      002D1B DD 77 FD         [19] 7019 	ld	-3 (ix), a
      002D1E DD 7E ED         [19] 7020 	ld	a, -19 (ix)
      002D21 CE 00            [ 7] 7021 	adc	a, #0x00
      002D23 DD 77 FE         [19] 7022 	ld	-2 (ix), a
      002D26 DD 7E EE         [19] 7023 	ld	a, -18 (ix)
      002D29 CE 00            [ 7] 7024 	adc	a, #0x00
      002D2B DD 77 FF         [19] 7025 	ld	-1 (ix), a
      002D2E                       7026 00133$:
      002D2E DD 4E FC         [19] 7027 	ld	c, -4 (ix)
      002D31 DD 46 FD         [19] 7028 	ld	b, -3 (ix)
      002D34 DD 71 FE         [19] 7029 	ld	-2 (ix), c
      002D37 DD 70 FF         [19] 7030 	ld	-1 (ix), b
      002D3A DD CB FF 3E      [23] 7031 	srl	-1 (ix)
      002D3E DD CB FE 1E      [23] 7032 	rr	-2 (ix)
      002D42 DD CB FF 3E      [23] 7033 	srl	-1 (ix)
      002D46 DD CB FE 1E      [23] 7034 	rr	-2 (ix)
      002D4A DD CB FF 3E      [23] 7035 	srl	-1 (ix)
      002D4E DD CB FE 1E      [23] 7036 	rr	-2 (ix)
      002D52 DD 7E FE         [19] 7037 	ld	a, -2 (ix)
      002D55 DD 77 F5         [19] 7038 	ld	-11 (ix), a
                                   7039 ;pocket_platformer.c:995: unsigned char tx_r = (unsigned char)(((player.x >> 8) + PLAYER_W - 1) / TILE_SIZE);
      002D58 DD 7E EB         [19] 7040 	ld	a, -21 (ix)
      002D5B C6 05            [ 7] 7041 	add	a, #0x05
      002D5D DD 77 F8         [19] 7042 	ld	-8 (ix), a
      002D60 DD 7E EC         [19] 7043 	ld	a, -20 (ix)
      002D63 CE 00            [ 7] 7044 	adc	a, #0x00
      002D65 DD 77 F9         [19] 7045 	ld	-7 (ix), a
      002D68 DD 7E ED         [19] 7046 	ld	a, -19 (ix)
      002D6B CE 00            [ 7] 7047 	adc	a, #0x00
      002D6D DD 77 FA         [19] 7048 	ld	-6 (ix), a
      002D70 DD 7E EE         [19] 7049 	ld	a, -18 (ix)
      002D73 CE 00            [ 7] 7050 	adc	a, #0x00
      002D75 DD 77 FB         [19] 7051 	ld	-5 (ix), a
      002D78 21 11 00         [10] 7052 	ld	hl, #17
      002D7B 39               [11] 7053 	add	hl, sp
      002D7C EB               [ 4] 7054 	ex	de, hl
      002D7D 21 0D 00         [10] 7055 	ld	hl, #13
      002D80 39               [11] 7056 	add	hl, sp
      002D81 01 04 00         [10] 7057 	ld	bc, #4
      002D84 ED B0            [21] 7058 	ldir
      002D86 DD CB FB 7E      [20] 7059 	bit	7, -5 (ix)
      002D8A 28 20            [12] 7060 	jr	Z, 00134$
      002D8C DD 7E EB         [19] 7061 	ld	a, -21 (ix)
      002D8F C6 0C            [ 7] 7062 	add	a, #0x0c
      002D91 DD 77 FC         [19] 7063 	ld	-4 (ix), a
      002D94 DD 7E EC         [19] 7064 	ld	a, -20 (ix)
      002D97 CE 00            [ 7] 7065 	adc	a, #0x00
      002D99 DD 77 FD         [19] 7066 	ld	-3 (ix), a
      002D9C DD 7E ED         [19] 7067 	ld	a, -19 (ix)
      002D9F CE 00            [ 7] 7068 	adc	a, #0x00
      002DA1 DD 77 FE         [19] 7069 	ld	-2 (ix), a
      002DA4 DD 7E EE         [19] 7070 	ld	a, -18 (ix)
      002DA7 CE 00            [ 7] 7071 	adc	a, #0x00
      002DA9 DD 77 FF         [19] 7072 	ld	-1 (ix), a
      002DAC                       7073 00134$:
      002DAC DD 7E FC         [19] 7074 	ld	a, -4 (ix)
      002DAF DD 77 FE         [19] 7075 	ld	-2 (ix), a
      002DB2 DD 7E FD         [19] 7076 	ld	a, -3 (ix)
      002DB5 DD 77 FF         [19] 7077 	ld	-1 (ix), a
      002DB8 DD CB FF 3E      [23] 7078 	srl	-1 (ix)
      002DBC DD CB FE 1E      [23] 7079 	rr	-2 (ix)
      002DC0 DD CB FF 3E      [23] 7080 	srl	-1 (ix)
      002DC4 DD CB FE 1E      [23] 7081 	rr	-2 (ix)
      002DC8 DD CB FF 3E      [23] 7082 	srl	-1 (ix)
      002DCC DD CB FE 1E      [23] 7083 	rr	-2 (ix)
      002DD0 DD 7E FE         [19] 7084 	ld	a, -2 (ix)
      002DD3 DD 77 F6         [19] 7085 	ld	-10 (ix), a
                                   7086 ;pocket_platformer.c:996: unsigned char ty_t = (unsigned char)((player.y >> 8) / TILE_SIZE);
      002DD6 11r10r00         [10] 7087 	ld	de, #(_player + 4)
      002DD9 21 11 00         [10] 7088 	ld	hl, #17
      002DDC 39               [11] 7089 	add	hl, sp
      002DDD EB               [ 4] 7090 	ex	de, hl
      002DDE 01 04 00         [10] 7091 	ld	bc, #0x0004
      002DE1 ED B0            [21] 7092 	ldir
      002DE3 DD 7E FC         [19] 7093 	ld	a, -4 (ix)
      002DE6 DD 77 F7         [19] 7094 	ld	-9 (ix), a
      002DE9 DD 7E FD         [19] 7095 	ld	a, -3 (ix)
      002DEC DD 77 F8         [19] 7096 	ld	-8 (ix), a
      002DEF DD 7E FE         [19] 7097 	ld	a, -2 (ix)
      002DF2 DD 77 F9         [19] 7098 	ld	-7 (ix), a
      002DF5 DD 7E FF         [19] 7099 	ld	a, -1 (ix)
      002DF8 DD 77 FA         [19] 7100 	ld	-6 (ix), a
      002DFB 06 08            [ 7] 7101 	ld	b, #0x08
      002DFD                       7102 00263$:
      002DFD DD CB FA 2E      [23] 7103 	sra	-6 (ix)
      002E01 DD CB F9 1E      [23] 7104 	rr	-7 (ix)
      002E05 DD CB F8 1E      [23] 7105 	rr	-8 (ix)
      002E09 DD CB F7 1E      [23] 7106 	rr	-9 (ix)
      002E0D 10 EE            [13] 7107 	djnz	00263$
      002E0F 21 00 00         [10] 7108 	ld	hl, #0
      002E12 39               [11] 7109 	add	hl, sp
      002E13 EB               [ 4] 7110 	ex	de, hl
      002E14 21 0C 00         [10] 7111 	ld	hl, #12
      002E17 39               [11] 7112 	add	hl, sp
      002E18 01 04 00         [10] 7113 	ld	bc, #4
      002E1B ED B0            [21] 7114 	ldir
      002E1D DD 7E F7         [19] 7115 	ld	a, -9 (ix)
      002E20 C6 07            [ 7] 7116 	add	a, #0x07
      002E22 DD 77 FB         [19] 7117 	ld	-5 (ix), a
      002E25 DD 7E F8         [19] 7118 	ld	a, -8 (ix)
      002E28 CE 00            [ 7] 7119 	adc	a, #0x00
      002E2A DD 77 FC         [19] 7120 	ld	-4 (ix), a
      002E2D DD 7E F9         [19] 7121 	ld	a, -7 (ix)
      002E30 CE 00            [ 7] 7122 	adc	a, #0x00
      002E32 DD 77 FD         [19] 7123 	ld	-3 (ix), a
      002E35 DD 7E FA         [19] 7124 	ld	a, -6 (ix)
      002E38 CE 00            [ 7] 7125 	adc	a, #0x00
      002E3A DD 77 FE         [19] 7126 	ld	-2 (ix), a
      002E3D DD CB FA 7E      [20] 7127 	bit	7, -6 (ix)
      002E41 28 0E            [12] 7128 	jr	Z, 00135$
      002E43 21 00 00         [10] 7129 	ld	hl, #0
      002E46 39               [11] 7130 	add	hl, sp
      002E47 EB               [ 4] 7131 	ex	de, hl
      002E48 21 10 00         [10] 7132 	ld	hl, #16
      002E4B 39               [11] 7133 	add	hl, sp
      002E4C 01 04 00         [10] 7134 	ld	bc, #4
      002E4F ED B0            [21] 7135 	ldir
      002E51                       7136 00135$:
      002E51 C1               [10] 7137 	pop	bc
      002E52 C5               [11] 7138 	push	bc
      002E53 CB 38            [ 8] 7139 	srl	b
      002E55 CB 19            [ 8] 7140 	rr	c
      002E57 CB 38            [ 8] 7141 	srl	b
      002E59 CB 19            [ 8] 7142 	rr	c
      002E5B CB 38            [ 8] 7143 	srl	b
      002E5D CB 19            [ 8] 7144 	rr	c
      002E5F DD 71 FF         [19] 7145 	ld	-1 (ix), c
                                   7146 ;pocket_platformer.c:997: unsigned char ty_b = (unsigned char)(((player.y >> 8) + PLAYER_H - 1) / TILE_SIZE);
      002E62 DD 4E FB         [19] 7147 	ld	c, -5 (ix)
      002E65 DD 46 FC         [19] 7148 	ld	b, -4 (ix)
      002E68 DD CB FE 7E      [20] 7149 	bit	7, -2 (ix)
      002E6C 28 0C            [12] 7150 	jr	Z, 00136$
      002E6E DD 7E F7         [19] 7151 	ld	a, -9 (ix)
      002E71 C6 0E            [ 7] 7152 	add	a, #0x0e
      002E73 4F               [ 4] 7153 	ld	c, a
      002E74 DD 7E F8         [19] 7154 	ld	a, -8 (ix)
      002E77 CE 00            [ 7] 7155 	adc	a, #0x00
      002E79 47               [ 4] 7156 	ld	b, a
      002E7A                       7157 00136$:
      002E7A CB 38            [ 8] 7158 	srl	b
      002E7C CB 19            [ 8] 7159 	rr	c
      002E7E CB 38            [ 8] 7160 	srl	b
      002E80 CB 19            [ 8] 7161 	rr	c
      002E82 CB 38            [ 8] 7162 	srl	b
      002E84 CB 19            [ 8] 7163 	rr	c
      002E86 DD 71 FE         [19] 7164 	ld	-2 (ix), c
                                   7165 ;pocket_platformer.c:999: for (bx = tx_l; bx <= tx_r; bx++) {
      002E89 DD 4E F5         [19] 7166 	ld	c, -11 (ix)
      002E8C                       7167 00125$:
      002E8C DD 7E F6         [19] 7168 	ld	a, -10 (ix)
      002E8F 91               [ 4] 7169 	sub	a, c
      002E90 38 2A            [12] 7170 	jr	C, 00127$
                                   7171 ;pocket_platformer.c:1000: for (by = ty_t; by <= ty_b; by++) {
      002E92 DD 46 FF         [19] 7172 	ld	b, -1 (ix)
      002E95                       7173 00122$:
      002E95 DD 7E FE         [19] 7174 	ld	a, -2 (ix)
      002E98 90               [ 4] 7175 	sub	a, b
      002E99 38 1E            [12] 7176 	jr	C, 00126$
                                   7177 ;pocket_platformer.c:1001: unsigned char bt = get_tile(bx, by);
      002E9B C5               [11] 7178 	push	bc
      002E9C 68               [ 4] 7179 	ld	l, b
                                   7180 ;	spillPairReg hl
                                   7181 ;	spillPairReg hl
      002E9D 79               [ 4] 7182 	ld	a, c
      002E9E CDr1Er01         [17] 7183 	call	_get_tile
      002EA1 C1               [10] 7184 	pop	bc
                                   7185 ;pocket_platformer.c:1002: if (bt == (res_header->fg_disp_vram_idx | 0x80))
      002EA2 2Ar00r00         [16] 7186 	ld	hl, (_res_header)
      002EA5 11 25 00         [10] 7187 	ld	de, #0x0025
      002EA8 19               [11] 7188 	add	hl, de
      002EA9 5E               [ 7] 7189 	ld	e, (hl)
      002EAA CB FB            [ 8] 7190 	set	7, e
      002EAC 93               [ 4] 7191 	sub	a, e
      002EAD 20 07            [12] 7192 	jr	NZ, 00123$
                                   7193 ;pocket_platformer.c:1003: fg_disp_touch_connected(bx, by);
      002EAF C5               [11] 7194 	push	bc
      002EB0 68               [ 4] 7195 	ld	l, b
                                   7196 ;	spillPairReg hl
                                   7197 ;	spillPairReg hl
      002EB1 79               [ 4] 7198 	ld	a, c
      002EB2 CDrD0r02         [17] 7199 	call	_fg_disp_touch_connected
      002EB5 C1               [10] 7200 	pop	bc
      002EB6                       7201 00123$:
                                   7202 ;pocket_platformer.c:1000: for (by = ty_t; by <= ty_b; by++) {
      002EB6 04               [ 4] 7203 	inc	b
      002EB7 18 DC            [12] 7204 	jr	00122$
      002EB9                       7205 00126$:
                                   7206 ;pocket_platformer.c:999: for (bx = tx_l; bx <= tx_r; bx++) {
      002EB9 0C               [ 4] 7207 	inc	c
      002EBA 18 D0            [12] 7208 	jr	00125$
      002EBC                       7209 00127$:
                                   7210 ;pocket_platformer.c:1007: }
      002EBC DD F9            [10] 7211 	ld	sp, ix
      002EBE DD E1            [14] 7212 	pop	ix
      002EC0 C9               [10] 7213 	ret
                                   7214 ;pocket_platformer.c:1009: static void update_disappearing_blocks(void) {
                                   7215 ;	---------------------------------
                                   7216 ; Function update_disappearing_blocks
                                   7217 ; ---------------------------------
      002EC1                       7218 _update_disappearing_blocks:
      002EC1 DD E5            [15] 7219 	push	ix
      002EC3 DD 21 00 00      [14] 7220 	ld	ix,#0
      002EC7 DD 39            [15] 7221 	add	ix,sp
      002EC9 21 E8 FF         [10] 7222 	ld	hl, #-24
      002ECC 39               [11] 7223 	add	hl, sp
      002ECD F9               [ 6] 7224 	ld	sp, hl
                                   7225 ;pocket_platformer.c:1011: check_disp_touch();
      002ECE CDr9Er2A         [17] 7226 	call	_check_disp_touch
                                   7227 ;pocket_platformer.c:1012: for (i = 0; i < MAX_DISP; i++) {
      002ED1 DD 36 FF 00      [19] 7228 	ld	-1 (ix), #0x00
      002ED5                       7229 00125$:
                                   7230 ;pocket_platformer.c:1015: disp_entry *e = &disp_blocks[i];
      002ED5 DD 7E FF         [19] 7231 	ld	a, -1 (ix)
      002ED8 DD 77 FD         [19] 7232 	ld	-3 (ix), a
      002EDB DD 36 FE 00      [19] 7233 	ld	-2 (ix), #0x00
      002EDF DD 7E FD         [19] 7234 	ld	a, -3 (ix)
      002EE2 DD 77 FB         [19] 7235 	ld	-5 (ix), a
      002EE5 DD 7E FE         [19] 7236 	ld	a, -2 (ix)
      002EE8 DD 77 FC         [19] 7237 	ld	-4 (ix), a
      002EEB 06 02            [ 7] 7238 	ld	b, #0x02
      002EED                       7239 00269$:
      002EED DD CB FB 26      [23] 7240 	sla	-5 (ix)
      002EF1 DD CB FC 16      [23] 7241 	rl	-4 (ix)
      002EF5 10 F6            [13] 7242 	djnz	00269$
      002EF7 3ErEC            [ 7] 7243 	ld	a, #<(_disp_blocks)
      002EF9 DD 86 FB         [19] 7244 	add	a, -5 (ix)
      002EFC DD 77 FD         [19] 7245 	ld	-3 (ix), a
      002EFF 3Es01            [ 7] 7246 	ld	a, #>(_disp_blocks)
      002F01 DD 8E FC         [19] 7247 	adc	a, -4 (ix)
      002F04 DD 77 FE         [19] 7248 	ld	-2 (ix), a
      002F07 DD 7E FD         [19] 7249 	ld	a, -3 (ix)
      002F0A DD 77 E8         [19] 7250 	ld	-24 (ix), a
      002F0D DD 7E FE         [19] 7251 	ld	a, -2 (ix)
      002F10 DD 77 E9         [19] 7252 	ld	-23 (ix), a
                                   7253 ;pocket_platformer.c:1016: if (!e->frame) continue;
      002F13 DD 7E E8         [19] 7254 	ld	a, -24 (ix)
      002F16 C6 02            [ 7] 7255 	add	a, #0x02
      002F18 DD 77 EA         [19] 7256 	ld	-22 (ix), a
      002F1B DD 7E E9         [19] 7257 	ld	a, -23 (ix)
      002F1E CE 00            [ 7] 7258 	adc	a, #0x00
      002F20 DD 77 EB         [19] 7259 	ld	-21 (ix), a
      002F23 DD 6E EA         [19] 7260 	ld	l, -22 (ix)
      002F26 DD 66 EB         [19] 7261 	ld	h, -21 (ix)
      002F29 7E               [ 7] 7262 	ld	a, (hl)
      002F2A DD 77 FE         [19] 7263 	ld	-2 (ix), a
      002F2D B7               [ 4] 7264 	or	a, a
      002F2E CAr78r31         [10] 7265 	jp	Z, 00110$
                                   7266 ;pocket_platformer.c:1018: e->frame++;
      002F31 DD 5E FE         [19] 7267 	ld	e, -2 (ix)
      002F34 1C               [ 4] 7268 	inc	e
      002F35 C1               [10] 7269 	pop	bc
      002F36 E1               [10] 7270 	pop	hl
      002F37 E5               [11] 7271 	push	hl
      002F38 C5               [11] 7272 	push	bc
      002F39 73               [ 7] 7273 	ld	(hl), e
                                   7274 ;pocket_platformer.c:1019: tx = e->tx; ty = e->ty;
      002F3A E1               [10] 7275 	pop	hl
      002F3B E5               [11] 7276 	push	hl
      002F3C 46               [ 7] 7277 	ld	b, (hl)
      002F3D E1               [10] 7278 	pop	hl
      002F3E E5               [11] 7279 	push	hl
      002F3F 23               [ 6] 7280 	inc	hl
      002F40 4E               [ 7] 7281 	ld	c, (hl)
                                   7282 ;pocket_platformer.c:1020: scr_x = tx % SCREEN_TILES_W;
      002F41 78               [ 4] 7283 	ld	a, b
      002F42 E6 1F            [ 7] 7284 	and	a, #0x1f
                                   7285 ;pocket_platformer.c:1021: scr_y = ty;
      002F44 DD 71 EC         [19] 7286 	ld	-20 (ix), c
                                   7287 ;pocket_platformer.c:1023: if (e->frame == DISP_GONE_AT) {
      002F47 DD 6E EA         [19] 7288 	ld	l, -22 (ix)
      002F4A DD 66 EB         [19] 7289 	ld	h, -21 (ix)
      002F4D 6E               [ 7] 7290 	ld	l, (hl)
                                   7291 ;	spillPairReg hl
                                   7292 ;pocket_platformer.c:1025: SMS_setNextTileatXY(scr_x, scr_y);
      002F4E 16 00            [ 7] 7293 	ld	d, #0x00
      002F50 DD 77 ED         [19] 7294 	ld	-19 (ix), a
      002F53 DD 72 EE         [19] 7295 	ld	-18 (ix), d
                                   7296 ;pocket_platformer.c:1023: if (e->frame == DISP_GONE_AT) {
      002F56 7B               [ 4] 7297 	ld	a, e
      002F57 D6 28            [ 7] 7298 	sub	a, #0x28
      002F59 20 1C            [12] 7299 	jr	NZ, 00108$
                                   7300 ;pocket_platformer.c:1025: SMS_setNextTileatXY(scr_x, scr_y);
      002F5B 69               [ 4] 7301 	ld	l, c
                                   7302 ;	spillPairReg hl
                                   7303 ;	spillPairReg hl
      002F5C 26 00            [ 7] 7304 	ld	h, #0x00
                                   7305 ;	spillPairReg hl
                                   7306 ;	spillPairReg hl
      002F5E 29               [11] 7307 	add	hl, hl
      002F5F 29               [11] 7308 	add	hl, hl
      002F60 29               [11] 7309 	add	hl, hl
      002F61 29               [11] 7310 	add	hl, hl
      002F62 29               [11] 7311 	add	hl, hl
      002F63 DD 5E ED         [19] 7312 	ld	e, -19 (ix)
      002F66 DD 56 EE         [19] 7313 	ld	d, -18 (ix)
      002F69 19               [11] 7314 	add	hl, de
      002F6A 29               [11] 7315 	add	hl, hl
      002F6B 7C               [ 4] 7316 	ld	a, h
      002F6C F6 78            [ 7] 7317 	or	a, #0x78
      002F6E 67               [ 4] 7318 	ld	h, a
                                   7319 ;	spillPairReg hl
                                   7320 ;	spillPairReg hl
      002F6F CF               [11] 7321 	rst	#0x08
                                   7322 ;pocket_platformer.c:1026: SMS_setTile(0);
      002F70 21 00 00         [10] 7323 	ld	hl, #0x0000
      002F73 DF               [11] 7324 	rst	#0x18
      002F74 C3r78r31         [10] 7325 	jp	00110$
      002F77                       7326 00108$:
                                   7327 ;pocket_platformer.c:1028: else if (e->frame >= DISP_RESET_AT) {
      002F77 7D               [ 4] 7328 	ld	a, l
      002F78 D6 C8            [ 7] 7329 	sub	a, #0xc8
      002F7A DAr78r31         [10] 7330 	jp	C, 00110$
                                   7331 ;pocket_platformer.c:1031: long bx = (long)tx * TILE_SIZE, by = (long)ty * TILE_SIZE;
      002F7D 68               [ 4] 7332 	ld	l, b
                                   7333 ;	spillPairReg hl
                                   7334 ;	spillPairReg hl
                                   7335 ;	spillPairReg hl
                                   7336 ;	spillPairReg hl
      002F7E AF               [ 4] 7337 	xor	a, a
      002F7F 67               [ 4] 7338 	ld	h, a
      002F80 5F               [ 4] 7339 	ld	e, a
      002F81 06 03            [ 7] 7340 	ld	b, #0x03
      002F83                       7341 00272$:
      002F83 29               [11] 7342 	add	hl, hl
      002F84 8F               [ 4] 7343 	adc	a, a
      002F85 CB 13            [ 8] 7344 	rl	e
      002F87 10 FA            [13] 7345 	djnz	00272$
      002F89 DD 75 EF         [19] 7346 	ld	-17 (ix), l
      002F8C DD 74 F0         [19] 7347 	ld	-16 (ix), h
      002F8F DD 77 F1         [19] 7348 	ld	-15 (ix), a
      002F92 DD 73 F2         [19] 7349 	ld	-14 (ix), e
      002F95 69               [ 4] 7350 	ld	l, c
                                   7351 ;	spillPairReg hl
                                   7352 ;	spillPairReg hl
                                   7353 ;	spillPairReg hl
                                   7354 ;	spillPairReg hl
      002F96 AF               [ 4] 7355 	xor	a, a
      002F97 67               [ 4] 7356 	ld	h, a
      002F98 4F               [ 4] 7357 	ld	c, a
      002F99 06 03            [ 7] 7358 	ld	b, #0x03
      002F9B                       7359 00274$:
      002F9B 29               [11] 7360 	add	hl, hl
      002F9C 8F               [ 4] 7361 	adc	a, a
      002F9D CB 11            [ 8] 7362 	rl	c
      002F9F 10 FA            [13] 7363 	djnz	00274$
      002FA1 DD 75 F3         [19] 7364 	ld	-13 (ix), l
      002FA4 DD 74 F4         [19] 7365 	ld	-12 (ix), h
      002FA7 DD 77 F5         [19] 7366 	ld	-11 (ix), a
      002FAA DD 71 F6         [19] 7367 	ld	-10 (ix), c
                                   7368 ;pocket_platformer.c:1032: long ppx = player.x >> 8, ppy = player.y >> 8;
      002FAD ED 5Br0Cr00      [20] 7369 	ld	de, (#_player + 0)
      002FB1 2Ar0Er00         [16] 7370 	ld	hl, (#_player + 2)
      002FB4 06 08            [ 7] 7371 	ld	b, #0x08
      002FB6                       7372 00276$:
      002FB6 CB 2C            [ 8] 7373 	sra	h
      002FB8 CB 1D            [ 8] 7374 	rr	l
      002FBA CB 1A            [ 8] 7375 	rr	d
      002FBC CB 1B            [ 8] 7376 	rr	e
      002FBE 10 F6            [13] 7377 	djnz	00276$
      002FC0 DD 73 F7         [19] 7378 	ld	-9 (ix), e
      002FC3 DD 72 F8         [19] 7379 	ld	-8 (ix), d
      002FC6 DD 75 F9         [19] 7380 	ld	-7 (ix), l
      002FC9 DD 74 FA         [19] 7381 	ld	-6 (ix), h
      002FCC ED 5Br10r00      [20] 7382 	ld	de, (#(_player + 4) + 0)
      002FD0 2Ar12r00         [16] 7383 	ld	hl, (#(_player + 4) + 2)
      002FD3 06 08            [ 7] 7384 	ld	b, #0x08
      002FD5                       7385 00278$:
      002FD5 CB 2C            [ 8] 7386 	sra	h
      002FD7 CB 1D            [ 8] 7387 	rr	l
      002FD9 CB 1A            [ 8] 7388 	rr	d
      002FDB CB 1B            [ 8] 7389 	rr	e
      002FDD 10 F6            [13] 7390 	djnz	00278$
      002FDF DD 73 FB         [19] 7391 	ld	-5 (ix), e
      002FE2 DD 72 FC         [19] 7392 	ld	-4 (ix), d
      002FE5 DD 75 FD         [19] 7393 	ld	-3 (ix), l
      002FE8 DD 74 FE         [19] 7394 	ld	-2 (ix), h
                                   7395 ;pocket_platformer.c:1033: unsigned char on_top =
      002FEB DD 7E F7         [19] 7396 	ld	a, -9 (ix)
      002FEE C6 06            [ 7] 7397 	add	a, #0x06
      002FF0 4F               [ 4] 7398 	ld	c, a
      002FF1 DD 7E F8         [19] 7399 	ld	a, -8 (ix)
      002FF4 CE 00            [ 7] 7400 	adc	a, #0x00
      002FF6 47               [ 4] 7401 	ld	b, a
      002FF7 DD 7E F9         [19] 7402 	ld	a, -7 (ix)
      002FFA CE 00            [ 7] 7403 	adc	a, #0x00
      002FFC 5F               [ 4] 7404 	ld	e, a
      002FFD DD 7E FA         [19] 7405 	ld	a, -6 (ix)
      003000 CE 00            [ 7] 7406 	adc	a, #0x00
      003002 57               [ 4] 7407 	ld	d, a
      003003 DD 7E EF         [19] 7408 	ld	a, -17 (ix)
      003006 91               [ 4] 7409 	sub	a, c
      003007 DD 7E F0         [19] 7410 	ld	a, -16 (ix)
      00300A 98               [ 4] 7411 	sbc	a, b
      00300B DD 7E F1         [19] 7412 	ld	a, -15 (ix)
      00300E 9B               [ 4] 7413 	sbc	a, e
      00300F DD 7E F2         [19] 7414 	ld	a, -14 (ix)
      003012 9A               [ 4] 7415 	sbc	a, d
      003013 E2r18r30         [10] 7416 	jp	PO, 00280$
      003016 EE 80            [ 7] 7417 	xor	a, #0x80
      003018                       7418 00280$:
      003018 F2rB3r30         [10] 7419 	jp	P, 00129$
      00301B DD 7E EF         [19] 7420 	ld	a, -17 (ix)
      00301E C6 08            [ 7] 7421 	add	a, #0x08
      003020 4F               [ 4] 7422 	ld	c, a
      003021 DD 7E F0         [19] 7423 	ld	a, -16 (ix)
      003024 CE 00            [ 7] 7424 	adc	a, #0x00
      003026 47               [ 4] 7425 	ld	b, a
      003027 DD 7E F1         [19] 7426 	ld	a, -15 (ix)
      00302A CE 00            [ 7] 7427 	adc	a, #0x00
      00302C 5F               [ 4] 7428 	ld	e, a
      00302D DD 7E F2         [19] 7429 	ld	a, -14 (ix)
      003030 CE 00            [ 7] 7430 	adc	a, #0x00
      003032 57               [ 4] 7431 	ld	d, a
      003033 DD 7E F7         [19] 7432 	ld	a, -9 (ix)
      003036 91               [ 4] 7433 	sub	a, c
      003037 DD 7E F8         [19] 7434 	ld	a, -8 (ix)
      00303A 98               [ 4] 7435 	sbc	a, b
      00303B DD 7E F9         [19] 7436 	ld	a, -7 (ix)
      00303E 9B               [ 4] 7437 	sbc	a, e
      00303F DD 7E FA         [19] 7438 	ld	a, -6 (ix)
      003042 9A               [ 4] 7439 	sbc	a, d
      003043 E2r48r30         [10] 7440 	jp	PO, 00281$
      003046 EE 80            [ 7] 7441 	xor	a, #0x80
      003048                       7442 00281$:
      003048 F2rB3r30         [10] 7443 	jp	P, 00129$
      00304B DD 7E FB         [19] 7444 	ld	a, -5 (ix)
      00304E C6 08            [ 7] 7445 	add	a, #0x08
      003050 4F               [ 4] 7446 	ld	c, a
      003051 DD 7E FC         [19] 7447 	ld	a, -4 (ix)
      003054 CE 00            [ 7] 7448 	adc	a, #0x00
      003056 47               [ 4] 7449 	ld	b, a
      003057 DD 7E FD         [19] 7450 	ld	a, -3 (ix)
      00305A CE 00            [ 7] 7451 	adc	a, #0x00
      00305C 5F               [ 4] 7452 	ld	e, a
      00305D DD 7E FE         [19] 7453 	ld	a, -2 (ix)
      003060 CE 00            [ 7] 7454 	adc	a, #0x00
      003062 57               [ 4] 7455 	ld	d, a
      003063 79               [ 4] 7456 	ld	a, c
      003064 DD 96 F3         [19] 7457 	sub	a, -13 (ix)
      003067 78               [ 4] 7458 	ld	a, b
      003068 DD 9E F4         [19] 7459 	sbc	a, -12 (ix)
      00306B 7B               [ 4] 7460 	ld	a, e
      00306C DD 9E F5         [19] 7461 	sbc	a, -11 (ix)
      00306F 7A               [ 4] 7462 	ld	a, d
      003070 DD 9E F6         [19] 7463 	sbc	a, -10 (ix)
      003073 E2r78r30         [10] 7464 	jp	PO, 00282$
      003076 EE 80            [ 7] 7465 	xor	a, #0x80
      003078                       7466 00282$:
      003078 FArB3r30         [10] 7467 	jp	M, 00129$
      00307B DD 7E F3         [19] 7468 	ld	a, -13 (ix)
      00307E C6 02            [ 7] 7469 	add	a, #0x02
      003080 DD 77 FB         [19] 7470 	ld	-5 (ix), a
      003083 DD 7E F4         [19] 7471 	ld	a, -12 (ix)
      003086 CE 00            [ 7] 7472 	adc	a, #0x00
      003088 DD 77 FC         [19] 7473 	ld	-4 (ix), a
      00308B DD 7E F5         [19] 7474 	ld	a, -11 (ix)
      00308E CE 00            [ 7] 7475 	adc	a, #0x00
      003090 DD 77 FD         [19] 7476 	ld	-3 (ix), a
      003093 DD 7E F6         [19] 7477 	ld	a, -10 (ix)
      003096 CE 00            [ 7] 7478 	adc	a, #0x00
      003098 DD 77 FE         [19] 7479 	ld	-2 (ix), a
      00309B DD 7E FB         [19] 7480 	ld	a, -5 (ix)
      00309E 91               [ 4] 7481 	sub	a, c
      00309F DD 7E FC         [19] 7482 	ld	a, -4 (ix)
      0030A2 98               [ 4] 7483 	sbc	a, b
      0030A3 DD 7E FD         [19] 7484 	ld	a, -3 (ix)
      0030A6 9B               [ 4] 7485 	sbc	a, e
      0030A7 DD 7E FE         [19] 7486 	ld	a, -2 (ix)
      0030AA 9A               [ 4] 7487 	sbc	a, d
      0030AB E2rB0r30         [10] 7488 	jp	PO, 00283$
      0030AE EE 80            [ 7] 7489 	xor	a, #0x80
      0030B0                       7490 00283$:
      0030B0 F2rB9r30         [10] 7491 	jp	P, 00130$
      0030B3                       7492 00129$:
      0030B3 DD 36 FE 00      [19] 7493 	ld	-2 (ix), #0x00
      0030B7 18 04            [12] 7494 	jr	00131$
      0030B9                       7495 00130$:
      0030B9 DD 36 FE 01      [19] 7496 	ld	-2 (ix), #0x01
      0030BD                       7497 00131$:
      0030BD DD 7E FE         [19] 7498 	ld	a, -2 (ix)
                                   7499 ;pocket_platformer.c:1036: if (!on_top) {
      0030C0 B7               [ 4] 7500 	or	a, a
      0030C1 C2r78r31         [10] 7501 	jp	NZ, 00110$
                                   7502 ;pocket_platformer.c:1037: unsigned char orig_vram = e->is_connected
      0030C4 E1               [10] 7503 	pop	hl
      0030C5 E5               [11] 7504 	push	hl
      0030C6 23               [ 6] 7505 	inc	hl
      0030C7 23               [ 6] 7506 	inc	hl
      0030C8 23               [ 6] 7507 	inc	hl
      0030C9 4E               [ 7] 7508 	ld	c, (hl)
      0030CA 2Ar00r00         [16] 7509 	ld	hl, (_res_header)
      0030CD DD 75 FD         [19] 7510 	ld	-3 (ix), l
      0030D0 DD 74 FE         [19] 7511 	ld	-2 (ix), h
      0030D3 79               [ 4] 7512 	ld	a, c
      0030D4 B7               [ 4] 7513 	or	a, a
      0030D5 28 10            [12] 7514 	jr	Z, 00138$
      0030D7 DD 6E FD         [19] 7515 	ld	l, -3 (ix)
      0030DA DD 66 FE         [19] 7516 	ld	h, -2 (ix)
      0030DD 11 08 00         [10] 7517 	ld	de, #0x0008
      0030E0 19               [11] 7518 	add	hl, de
      0030E1 7E               [ 7] 7519 	ld	a, (hl)
      0030E2 DD 77 FE         [19] 7520 	ld	-2 (ix), a
      0030E5 18 0E            [12] 7521 	jr	00139$
      0030E7                       7522 00138$:
      0030E7 DD 5E FD         [19] 7523 	ld	e, -3 (ix)
      0030EA DD 56 FE         [19] 7524 	ld	d, -2 (ix)
      0030ED 21 07 00         [10] 7525 	ld	hl, #7
      0030F0 19               [11] 7526 	add	hl, de
      0030F1 7E               [ 7] 7527 	ld	a, (hl)
      0030F2 DD 77 FE         [19] 7528 	ld	-2 (ix), a
      0030F5                       7529 00139$:
      0030F5 DD 4E FE         [19] 7530 	ld	c, -2 (ix)
                                   7531 ;pocket_platformer.c:1040: vt = orig_vram ? (unsigned int)(VRAM_BG_BASE + orig_vram - 1) : 0u;
      0030F8 DD 7E FE         [19] 7532 	ld	a, -2 (ix)
      0030FB B7               [ 4] 7533 	or	a, a
      0030FC 28 09            [12] 7534 	jr	Z, 00140$
      0030FE AF               [ 4] 7535 	xor	a, a
      0030FF DD 71 FD         [19] 7536 	ld	-3 (ix), c
      003102 DD 77 FE         [19] 7537 	ld	-2 (ix), a
      003105 18 07            [12] 7538 	jr	00141$
      003107                       7539 00140$:
      003107 AF               [ 4] 7540 	xor	a, a
      003108 DD 77 FD         [19] 7541 	ld	-3 (ix), a
      00310B DD 77 FE         [19] 7542 	ld	-2 (ix), a
      00310E                       7543 00141$:
      00310E DD 7E FD         [19] 7544 	ld	a, -3 (ix)
      003111 DD 77 FB         [19] 7545 	ld	-5 (ix), a
      003114 DD 7E FE         [19] 7546 	ld	a, -2 (ix)
      003117 DD 77 FC         [19] 7547 	ld	-4 (ix), a
                                   7548 ;pocket_platformer.c:1041: SMS_setNextTileatXY(scr_x, scr_y);
      00311A DD 7E EC         [19] 7549 	ld	a, -20 (ix)
      00311D DD 77 FD         [19] 7550 	ld	-3 (ix), a
      003120 DD 36 FE 00      [19] 7551 	ld	-2 (ix), #0x00
      003124 06 05            [ 7] 7552 	ld	b, #0x05
      003126                       7553 00284$:
      003126 DD CB FD 26      [23] 7554 	sla	-3 (ix)
      00312A DD CB FE 16      [23] 7555 	rl	-2 (ix)
      00312E 10 F6            [13] 7556 	djnz	00284$
      003130 DD 7E FD         [19] 7557 	ld	a, -3 (ix)
      003133 DD 86 ED         [19] 7558 	add	a, -19 (ix)
      003136 DD 77 F9         [19] 7559 	ld	-7 (ix), a
      003139 DD 7E FE         [19] 7560 	ld	a, -2 (ix)
      00313C DD 8E EE         [19] 7561 	adc	a, -18 (ix)
      00313F DD 77 FA         [19] 7562 	ld	-6 (ix), a
      003142 DD 7E F9         [19] 7563 	ld	a, -7 (ix)
      003145 DD 77 FD         [19] 7564 	ld	-3 (ix), a
      003148 DD 7E FA         [19] 7565 	ld	a, -6 (ix)
      00314B DD 77 FE         [19] 7566 	ld	-2 (ix), a
      00314E DD CB FD 26      [23] 7567 	sla	-3 (ix)
      003152 DD CB FE 16      [23] 7568 	rl	-2 (ix)
      003156 DD 7E FD         [19] 7569 	ld	a, -3 (ix)
      003159 DD 77 F9         [19] 7570 	ld	-7 (ix), a
      00315C DD 7E FE         [19] 7571 	ld	a, -2 (ix)
      00315F F6 78            [ 7] 7572 	or	a, #0x78
      003161 DD 77 FA         [19] 7573 	ld	-6 (ix), a
      003164 DD 6E F9         [19] 7574 	ld	l, -7 (ix)
                                   7575 ;	spillPairReg hl
                                   7576 ;	spillPairReg hl
      003167 DD 66 FA         [19] 7577 	ld	h, -6 (ix)
                                   7578 ;	spillPairReg hl
                                   7579 ;	spillPairReg hl
      00316A CF               [11] 7580 	rst	#0x08
                                   7581 ;pocket_platformer.c:1042: SMS_setTile(vt);
      00316B DD 6E FB         [19] 7582 	ld	l, -5 (ix)
                                   7583 ;	spillPairReg hl
                                   7584 ;	spillPairReg hl
      00316E DD 66 FC         [19] 7585 	ld	h, -4 (ix)
                                   7586 ;	spillPairReg hl
                                   7587 ;	spillPairReg hl
      003171 DF               [11] 7588 	rst	#0x18
                                   7589 ;pocket_platformer.c:1043: e->frame = 0;
      003172 C1               [10] 7590 	pop	bc
      003173 E1               [10] 7591 	pop	hl
      003174 E5               [11] 7592 	push	hl
      003175 C5               [11] 7593 	push	bc
      003176 36 00            [10] 7594 	ld	(hl), #0x00
      003178                       7595 00110$:
                                   7596 ;pocket_platformer.c:1012: for (i = 0; i < MAX_DISP; i++) {
      003178 DD 34 FF         [23] 7597 	inc	-1 (ix)
      00317B DD 7E FF         [19] 7598 	ld	a, -1 (ix)
      00317E D6 10            [ 7] 7599 	sub	a, #0x10
      003180 DArD5r2E         [10] 7600 	jp	C, 00125$
                                   7601 ;pocket_platformer.c:1048: if (res_header->fg_disp_vram_idx) {
      003183 2Ar00r00         [16] 7602 	ld	hl, (_res_header)
      003186 11 25 00         [10] 7603 	ld	de, #0x0025
      003189 19               [11] 7604 	add	hl, de
      00318A 7E               [ 7] 7605 	ld	a, (hl)
      00318B B7               [ 4] 7606 	or	a, a
      00318C CArF8r33         [10] 7607 	jp	Z, 00127$
                                   7608 ;pocket_platformer.c:1050: for (j = 0; j < MAX_FG_DISP; j++) {
      00318F DD 36 FF 00      [19] 7609 	ld	-1 (ix), #0x00
      003193                       7610 00126$:
                                   7611 ;pocket_platformer.c:1052: fg_disp_entry *e = &fg_disp_blocks[j];
      003193 DD 4E FF         [19] 7612 	ld	c, -1 (ix)
      003196 06 00            [ 7] 7613 	ld	b, #0x00
      003198 69               [ 4] 7614 	ld	l, c
      003199 60               [ 4] 7615 	ld	h, b
      00319A 29               [11] 7616 	add	hl, hl
      00319B 09               [11] 7617 	add	hl, bc
      00319C 11r2Cr02         [10] 7618 	ld	de, #_fg_disp_blocks
      00319F 19               [11] 7619 	add	hl, de
      0031A0 DD 75 FD         [19] 7620 	ld	-3 (ix), l
      0031A3 DD 74 FE         [19] 7621 	ld	-2 (ix), h
                                   7622 ;pocket_platformer.c:1053: if (!e->frame) continue;
      0031A6 DD 7E FD         [19] 7623 	ld	a, -3 (ix)
      0031A9 C6 02            [ 7] 7624 	add	a, #0x02
      0031AB DD 77 EA         [19] 7625 	ld	-22 (ix), a
      0031AE DD 7E FE         [19] 7626 	ld	a, -2 (ix)
      0031B1 CE 00            [ 7] 7627 	adc	a, #0x00
      0031B3 DD 77 EB         [19] 7628 	ld	-21 (ix), a
      0031B6 DD 6E EA         [19] 7629 	ld	l, -22 (ix)
      0031B9 DD 66 EB         [19] 7630 	ld	h, -21 (ix)
      0031BC 4E               [ 7] 7631 	ld	c, (hl)
      0031BD 79               [ 4] 7632 	ld	a, c
      0031BE B7               [ 4] 7633 	or	a, a
      0031BF CArEDr33         [10] 7634 	jp	Z, 00121$
                                   7635 ;pocket_platformer.c:1054: e->frame++;
      0031C2 0C               [ 4] 7636 	inc	c
      0031C3 D1               [10] 7637 	pop	de
      0031C4 E1               [10] 7638 	pop	hl
      0031C5 E5               [11] 7639 	push	hl
      0031C6 D5               [11] 7640 	push	de
      0031C7 71               [ 7] 7641 	ld	(hl), c
                                   7642 ;pocket_platformer.c:1055: tx = e->tx; ty = e->ty;
      0031C8 DD 6E FD         [19] 7643 	ld	l, -3 (ix)
      0031CB DD 66 FE         [19] 7644 	ld	h, -2 (ix)
      0031CE 5E               [ 7] 7645 	ld	e, (hl)
      0031CF DD 6E FD         [19] 7646 	ld	l, -3 (ix)
                                   7647 ;	spillPairReg hl
                                   7648 ;	spillPairReg hl
      0031D2 DD 66 FE         [19] 7649 	ld	h, -2 (ix)
                                   7650 ;	spillPairReg hl
                                   7651 ;	spillPairReg hl
      0031D5 23               [ 6] 7652 	inc	hl
      0031D6 7E               [ 7] 7653 	ld	a, (hl)
      0031D7 DD 77 FE         [19] 7654 	ld	-2 (ix), a
                                   7655 ;pocket_platformer.c:1056: scr_x = tx % SCREEN_TILES_W;
      0031DA 7B               [ 4] 7656 	ld	a, e
      0031DB E6 1F            [ 7] 7657 	and	a, #0x1f
                                   7658 ;pocket_platformer.c:1057: scr_y = ty;
      0031DD F5               [11] 7659 	push	af
      0031DE DD 7E FE         [19] 7660 	ld	a, -2 (ix)
      0031E1 DD 77 EC         [19] 7661 	ld	-20 (ix), a
      0031E4 F1               [10] 7662 	pop	af
                                   7663 ;pocket_platformer.c:1058: if (e->frame == FG_DISP_GONE_AT) {
      0031E5 DD 6E EA         [19] 7664 	ld	l, -22 (ix)
      0031E8 DD 66 EB         [19] 7665 	ld	h, -21 (ix)
      0031EB 6E               [ 7] 7666 	ld	l, (hl)
                                   7667 ;	spillPairReg hl
                                   7668 ;pocket_platformer.c:1060: SMS_setNextTileatXY(scr_x, scr_y);
      0031EC 06 00            [ 7] 7669 	ld	b, #0x00
      0031EE DD 77 ED         [19] 7670 	ld	-19 (ix), a
      0031F1 DD 70 EE         [19] 7671 	ld	-18 (ix), b
                                   7672 ;pocket_platformer.c:1058: if (e->frame == FG_DISP_GONE_AT) {
      0031F4 79               [ 4] 7673 	ld	a, c
      0031F5 D6 05            [ 7] 7674 	sub	a, #0x05
      0031F7 20 1E            [12] 7675 	jr	NZ, 00119$
                                   7676 ;pocket_platformer.c:1060: SMS_setNextTileatXY(scr_x, scr_y);
      0031F9 DD 6E FE         [19] 7677 	ld	l, -2 (ix)
                                   7678 ;	spillPairReg hl
                                   7679 ;	spillPairReg hl
      0031FC 26 00            [ 7] 7680 	ld	h, #0x00
                                   7681 ;	spillPairReg hl
                                   7682 ;	spillPairReg hl
      0031FE 29               [11] 7683 	add	hl, hl
      0031FF 29               [11] 7684 	add	hl, hl
      003200 29               [11] 7685 	add	hl, hl
      003201 29               [11] 7686 	add	hl, hl
      003202 29               [11] 7687 	add	hl, hl
      003203 DD 5E ED         [19] 7688 	ld	e, -19 (ix)
      003206 DD 56 EE         [19] 7689 	ld	d, -18 (ix)
      003209 19               [11] 7690 	add	hl, de
      00320A 29               [11] 7691 	add	hl, hl
      00320B 7C               [ 4] 7692 	ld	a, h
      00320C F6 78            [ 7] 7693 	or	a, #0x78
      00320E 67               [ 4] 7694 	ld	h, a
                                   7695 ;	spillPairReg hl
                                   7696 ;	spillPairReg hl
      00320F CF               [11] 7697 	rst	#0x08
                                   7698 ;pocket_platformer.c:1061: SMS_setTile(0);
      003210 21 00 00         [10] 7699 	ld	hl, #0x0000
      003213 DF               [11] 7700 	rst	#0x18
      003214 C3rEDr33         [10] 7701 	jp	00121$
      003217                       7702 00119$:
                                   7703 ;pocket_platformer.c:1062: } else if (e->frame >= FG_DISP_RESET_AT) {
      003217 7D               [ 4] 7704 	ld	a, l
      003218 D6 78            [ 7] 7705 	sub	a, #0x78
      00321A DArEDr33         [10] 7706 	jp	C, 00121$
                                   7707 ;pocket_platformer.c:1064: long bx = (long)tx * TILE_SIZE, by = (long)ty * TILE_SIZE;
      00321D 4B               [ 4] 7708 	ld	c, e
      00321E 06 00            [ 7] 7709 	ld	b, #0x00
      003220 11 00 00         [10] 7710 	ld	de, #0x0000
      003223 3E 03            [ 7] 7711 	ld	a, #0x03
      003225                       7712 00288$:
      003225 CB 21            [ 8] 7713 	sla	c
      003227 CB 10            [ 8] 7714 	rl	b
      003229 CB 13            [ 8] 7715 	rl	e
      00322B CB 12            [ 8] 7716 	rl	d
      00322D 3D               [ 4] 7717 	dec	a
      00322E 20 F5            [12] 7718 	jr	NZ,00288$
      003230 DD 7E FE         [19] 7719 	ld	a, -2 (ix)
      003233 DD 77 FB         [19] 7720 	ld	-5 (ix), a
      003236 AF               [ 4] 7721 	xor	a, a
      003237 DD 77 FC         [19] 7722 	ld	-4 (ix), a
      00323A DD 77 FD         [19] 7723 	ld	-3 (ix), a
      00323D DD 77 FE         [19] 7724 	ld	-2 (ix), a
      003240 F5               [11] 7725 	push	af
      003241 DD 7E FB         [19] 7726 	ld	a, -5 (ix)
      003244 DD 77 EF         [19] 7727 	ld	-17 (ix), a
      003247 DD 7E FC         [19] 7728 	ld	a, -4 (ix)
      00324A DD 77 F0         [19] 7729 	ld	-16 (ix), a
      00324D DD 7E FD         [19] 7730 	ld	a, -3 (ix)
      003250 DD 77 F1         [19] 7731 	ld	-15 (ix), a
      003253 DD 7E FE         [19] 7732 	ld	a, -2 (ix)
      003256 DD 77 F2         [19] 7733 	ld	-14 (ix), a
      003259 F1               [10] 7734 	pop	af
      00325A 3E 03            [ 7] 7735 	ld	a, #0x03
      00325C                       7736 00290$:
      00325C DD CB EF 26      [23] 7737 	sla	-17 (ix)
      003260 DD CB F0 16      [23] 7738 	rl	-16 (ix)
      003264 DD CB F1 16      [23] 7739 	rl	-15 (ix)
      003268 DD CB F2 16      [23] 7740 	rl	-14 (ix)
      00326C 3D               [ 4] 7741 	dec	a
      00326D 20 ED            [12] 7742 	jr	NZ,00290$
                                   7743 ;pocket_platformer.c:1065: long ppx = player.x >> 8, ppy = player.y >> 8;
      00326F D5               [11] 7744 	push	de
      003270 C5               [11] 7745 	push	bc
      003271 11r0Cr00         [10] 7746 	ld	de, #_player
      003274 21 17 00         [10] 7747 	ld	hl, #23
      003277 39               [11] 7748 	add	hl, sp
      003278 EB               [ 4] 7749 	ex	de, hl
      003279 01 04 00         [10] 7750 	ld	bc, #0x0004
      00327C ED B0            [21] 7751 	ldir
      00327E C1               [10] 7752 	pop	bc
      00327F D1               [10] 7753 	pop	de
      003280 DD 7E FB         [19] 7754 	ld	a, -5 (ix)
      003283 DD 77 F3         [19] 7755 	ld	-13 (ix), a
      003286 DD 7E FC         [19] 7756 	ld	a, -4 (ix)
      003289 DD 77 F4         [19] 7757 	ld	-12 (ix), a
      00328C DD 7E FD         [19] 7758 	ld	a, -3 (ix)
      00328F DD 77 F5         [19] 7759 	ld	-11 (ix), a
      003292 DD 7E FE         [19] 7760 	ld	a, -2 (ix)
      003295 DD 77 F6         [19] 7761 	ld	-10 (ix), a
      003298 3E 08            [ 7] 7762 	ld	a, #0x08
      00329A                       7763 00292$:
      00329A DD CB F6 2E      [23] 7764 	sra	-10 (ix)
      00329E DD CB F5 1E      [23] 7765 	rr	-11 (ix)
      0032A2 DD CB F4 1E      [23] 7766 	rr	-12 (ix)
      0032A6 DD CB F3 1E      [23] 7767 	rr	-13 (ix)
      0032AA 3D               [ 4] 7768 	dec	a
      0032AB 20 ED            [12] 7769 	jr	NZ, 00292$
      0032AD D5               [11] 7770 	push	de
      0032AE C5               [11] 7771 	push	bc
      0032AF 11r10r00         [10] 7772 	ld	de, #(_player + 4)
      0032B2 21 17 00         [10] 7773 	ld	hl, #23
      0032B5 39               [11] 7774 	add	hl, sp
      0032B6 EB               [ 4] 7775 	ex	de, hl
      0032B7 01 04 00         [10] 7776 	ld	bc, #0x0004
      0032BA ED B0            [21] 7777 	ldir
      0032BC C1               [10] 7778 	pop	bc
      0032BD D1               [10] 7779 	pop	de
      0032BE DD 7E FB         [19] 7780 	ld	a, -5 (ix)
      0032C1 DD 77 F7         [19] 7781 	ld	-9 (ix), a
      0032C4 DD 7E FC         [19] 7782 	ld	a, -4 (ix)
      0032C7 DD 77 F8         [19] 7783 	ld	-8 (ix), a
      0032CA DD 7E FD         [19] 7784 	ld	a, -3 (ix)
      0032CD DD 77 F9         [19] 7785 	ld	-7 (ix), a
      0032D0 DD 7E FE         [19] 7786 	ld	a, -2 (ix)
      0032D3 DD 77 FA         [19] 7787 	ld	-6 (ix), a
      0032D6 3E 08            [ 7] 7788 	ld	a, #0x08
      0032D8                       7789 00294$:
      0032D8 DD CB FA 2E      [23] 7790 	sra	-6 (ix)
      0032DC DD CB F9 1E      [23] 7791 	rr	-7 (ix)
      0032E0 DD CB F8 1E      [23] 7792 	rr	-8 (ix)
      0032E4 DD CB F7 1E      [23] 7793 	rr	-9 (ix)
      0032E8 3D               [ 4] 7794 	dec	a
      0032E9 20 ED            [12] 7795 	jr	NZ, 00294$
                                   7796 ;pocket_platformer.c:1066: unsigned char overlap =
      0032EB DD 7E F3         [19] 7797 	ld	a, -13 (ix)
      0032EE C6 06            [ 7] 7798 	add	a, #0x06
      0032F0 DD 77 FB         [19] 7799 	ld	-5 (ix), a
      0032F3 DD 7E F4         [19] 7800 	ld	a, -12 (ix)
      0032F6 CE 00            [ 7] 7801 	adc	a, #0x00
      0032F8 DD 77 FC         [19] 7802 	ld	-4 (ix), a
      0032FB DD 7E F5         [19] 7803 	ld	a, -11 (ix)
      0032FE CE 00            [ 7] 7804 	adc	a, #0x00
      003300 DD 77 FD         [19] 7805 	ld	-3 (ix), a
      003303 DD 7E F6         [19] 7806 	ld	a, -10 (ix)
      003306 CE 00            [ 7] 7807 	adc	a, #0x00
      003308 DD 77 FE         [19] 7808 	ld	-2 (ix), a
      00330B 79               [ 4] 7809 	ld	a, c
      00330C DD 96 FB         [19] 7810 	sub	a, -5 (ix)
      00330F 78               [ 4] 7811 	ld	a, b
      003310 DD 9E FC         [19] 7812 	sbc	a, -4 (ix)
      003313 7B               [ 4] 7813 	ld	a, e
      003314 DD 9E FD         [19] 7814 	sbc	a, -3 (ix)
      003317 7A               [ 4] 7815 	ld	a, d
      003318 DD 9E FE         [19] 7816 	sbc	a, -2 (ix)
      00331B E2r20r33         [10] 7817 	jp	PO, 00296$
      00331E EE 80            [ 7] 7818 	xor	a, #0x80
      003320                       7819 00296$:
      003320 F2rBBr33         [10] 7820 	jp	P, 00142$
      003323 79               [ 4] 7821 	ld	a, c
      003324 C6 08            [ 7] 7822 	add	a, #0x08
      003326 DD 77 FB         [19] 7823 	ld	-5 (ix), a
      003329 78               [ 4] 7824 	ld	a, b
      00332A CE 00            [ 7] 7825 	adc	a, #0x00
      00332C DD 77 FC         [19] 7826 	ld	-4 (ix), a
      00332F 7B               [ 4] 7827 	ld	a, e
      003330 CE 00            [ 7] 7828 	adc	a, #0x00
      003332 DD 77 FD         [19] 7829 	ld	-3 (ix), a
      003335 7A               [ 4] 7830 	ld	a, d
      003336 CE 00            [ 7] 7831 	adc	a, #0x00
      003338 DD 77 FE         [19] 7832 	ld	-2 (ix), a
      00333B DD 7E F3         [19] 7833 	ld	a, -13 (ix)
      00333E DD 96 FB         [19] 7834 	sub	a, -5 (ix)
      003341 DD 7E F4         [19] 7835 	ld	a, -12 (ix)
      003344 DD 9E FC         [19] 7836 	sbc	a, -4 (ix)
      003347 DD 7E F5         [19] 7837 	ld	a, -11 (ix)
      00334A DD 9E FD         [19] 7838 	sbc	a, -3 (ix)
      00334D DD 7E F6         [19] 7839 	ld	a, -10 (ix)
      003350 DD 9E FE         [19] 7840 	sbc	a, -2 (ix)
      003353 E2r58r33         [10] 7841 	jp	PO, 00297$
      003356 EE 80            [ 7] 7842 	xor	a, #0x80
      003358                       7843 00297$:
      003358 F2rBBr33         [10] 7844 	jp	P, 00142$
      00335B DD 7E F7         [19] 7845 	ld	a, -9 (ix)
      00335E C6 08            [ 7] 7846 	add	a, #0x08
      003360 4F               [ 4] 7847 	ld	c, a
      003361 DD 7E F8         [19] 7848 	ld	a, -8 (ix)
      003364 CE 00            [ 7] 7849 	adc	a, #0x00
      003366 47               [ 4] 7850 	ld	b, a
      003367 DD 7E F9         [19] 7851 	ld	a, -7 (ix)
      00336A CE 00            [ 7] 7852 	adc	a, #0x00
      00336C 5F               [ 4] 7853 	ld	e, a
      00336D DD 7E FA         [19] 7854 	ld	a, -6 (ix)
      003370 CE 00            [ 7] 7855 	adc	a, #0x00
      003372 57               [ 4] 7856 	ld	d, a
      003373 DD 7E EF         [19] 7857 	ld	a, -17 (ix)
      003376 91               [ 4] 7858 	sub	a, c
      003377 DD 7E F0         [19] 7859 	ld	a, -16 (ix)
      00337A 98               [ 4] 7860 	sbc	a, b
      00337B DD 7E F1         [19] 7861 	ld	a, -15 (ix)
      00337E 9B               [ 4] 7862 	sbc	a, e
      00337F DD 7E F2         [19] 7863 	ld	a, -14 (ix)
      003382 9A               [ 4] 7864 	sbc	a, d
      003383 E2r88r33         [10] 7865 	jp	PO, 00298$
      003386 EE 80            [ 7] 7866 	xor	a, #0x80
      003388                       7867 00298$:
      003388 F2rBBr33         [10] 7868 	jp	P, 00142$
      00338B DD 7E EF         [19] 7869 	ld	a, -17 (ix)
      00338E C6 08            [ 7] 7870 	add	a, #0x08
      003390 4F               [ 4] 7871 	ld	c, a
      003391 DD 7E F0         [19] 7872 	ld	a, -16 (ix)
      003394 CE 00            [ 7] 7873 	adc	a, #0x00
      003396 47               [ 4] 7874 	ld	b, a
      003397 DD 7E F1         [19] 7875 	ld	a, -15 (ix)
      00339A CE 00            [ 7] 7876 	adc	a, #0x00
      00339C 5F               [ 4] 7877 	ld	e, a
      00339D DD 7E F2         [19] 7878 	ld	a, -14 (ix)
      0033A0 CE 00            [ 7] 7879 	adc	a, #0x00
      0033A2 57               [ 4] 7880 	ld	d, a
      0033A3 DD 7E F7         [19] 7881 	ld	a, -9 (ix)
      0033A6 91               [ 4] 7882 	sub	a, c
      0033A7 DD 7E F8         [19] 7883 	ld	a, -8 (ix)
      0033AA 98               [ 4] 7884 	sbc	a, b
      0033AB DD 7E F9         [19] 7885 	ld	a, -7 (ix)
      0033AE 9B               [ 4] 7886 	sbc	a, e
      0033AF DD 7E FA         [19] 7887 	ld	a, -6 (ix)
      0033B2 9A               [ 4] 7888 	sbc	a, d
      0033B3 E2rB8r33         [10] 7889 	jp	PO, 00299$
      0033B6 EE 80            [ 7] 7890 	xor	a, #0x80
      0033B8                       7891 00299$:
      0033B8 FArBEr33         [10] 7892 	jp	M, 00143$
      0033BB                       7893 00142$:
      0033BB AF               [ 4] 7894 	xor	a, a
      0033BC 18 02            [12] 7895 	jr	00144$
      0033BE                       7896 00143$:
      0033BE 3E 01            [ 7] 7897 	ld	a, #0x01
      0033C0                       7898 00144$:
                                   7899 ;pocket_platformer.c:1069: if (!overlap) {
      0033C0 B7               [ 4] 7900 	or	a, a
      0033C1 20 2A            [12] 7901 	jr	NZ, 00121$
                                   7902 ;pocket_platformer.c:1070: unsigned int vt = (unsigned int)(VRAM_BG_BASE + res_header->fg_disp_vram_idx - 1) | TILE_PRIORITY;
      0033C3 FD 2Ar00r00      [20] 7903 	ld	iy, (_res_header)
      0033C7 FD 5E 25         [19] 7904 	ld	e, 37 (iy)
      0033CA 16 00            [ 7] 7905 	ld	d, #0x00
      0033CC CB E2            [ 8] 7906 	set	4, d
                                   7907 ;pocket_platformer.c:1071: SMS_setNextTileatXY(scr_x, scr_y);
      0033CE DD 6E EC         [19] 7908 	ld	l, -20 (ix)
                                   7909 ;	spillPairReg hl
                                   7910 ;	spillPairReg hl
      0033D1 26 00            [ 7] 7911 	ld	h, #0x00
                                   7912 ;	spillPairReg hl
                                   7913 ;	spillPairReg hl
      0033D3 29               [11] 7914 	add	hl, hl
      0033D4 29               [11] 7915 	add	hl, hl
      0033D5 29               [11] 7916 	add	hl, hl
      0033D6 29               [11] 7917 	add	hl, hl
      0033D7 29               [11] 7918 	add	hl, hl
      0033D8 DD 4E ED         [19] 7919 	ld	c, -19 (ix)
      0033DB DD 46 EE         [19] 7920 	ld	b, -18 (ix)
      0033DE 09               [11] 7921 	add	hl, bc
      0033DF 29               [11] 7922 	add	hl, hl
      0033E0 7C               [ 4] 7923 	ld	a, h
      0033E1 F6 78            [ 7] 7924 	or	a, #0x78
      0033E3 67               [ 4] 7925 	ld	h, a
                                   7926 ;	spillPairReg hl
                                   7927 ;	spillPairReg hl
      0033E4 CF               [11] 7928 	rst	#0x08
                                   7929 ;pocket_platformer.c:1072: SMS_setTile(vt);
      0033E5 EB               [ 4] 7930 	ex	de, hl
      0033E6 DF               [11] 7931 	rst	#0x18
                                   7932 ;pocket_platformer.c:1073: e->frame = 0;
      0033E7 C1               [10] 7933 	pop	bc
      0033E8 E1               [10] 7934 	pop	hl
      0033E9 E5               [11] 7935 	push	hl
      0033EA C5               [11] 7936 	push	bc
      0033EB 36 00            [10] 7937 	ld	(hl), #0x00
      0033ED                       7938 00121$:
                                   7939 ;pocket_platformer.c:1050: for (j = 0; j < MAX_FG_DISP; j++) {
      0033ED DD 34 FF         [23] 7940 	inc	-1 (ix)
      0033F0 DD 7E FF         [19] 7941 	ld	a, -1 (ix)
      0033F3 D6 10            [ 7] 7942 	sub	a, #0x10
      0033F5 DAr93r31         [10] 7943 	jp	C, 00126$
      0033F8                       7944 00127$:
                                   7945 ;pocket_platformer.c:1078: }
      0033F8 DD F9            [10] 7946 	ld	sp, ix
      0033FA DD E1            [14] 7947 	pop	ix
      0033FC C9               [10] 7948 	ret
                                   7949 ;pocket_platformer.c:1085: static void update_camera(void) {
                                   7950 ;	---------------------------------
                                   7951 ; Function update_camera
                                   7952 ; ---------------------------------
      0033FD                       7953 _update_camera:
                                   7954 ;pocket_platformer.c:1087: camera_x = 0;
      0033FD 21 00 00         [10] 7955 	ld	hl, #0x0000
      003400 22r2Cr00         [16] 7956 	ld	(_camera_x), hl
                                   7957 ;pocket_platformer.c:1088: SMS_setBGScrollX(0);
      003403 2E 00            [ 7] 7958 	ld	l, #0x00
                                   7959 ;	spillPairReg hl
                                   7960 ;	spillPairReg hl
                                   7961 ;pocket_platformer.c:1089: }
      003405 C3r00r00         [10] 7962 	jp	_SMS_setBGScrollX
                                   7963 ;pocket_platformer.c:1094: static void update_anim(void) {
                                   7964 ;	---------------------------------
                                   7965 ; Function update_anim
                                   7966 ; ---------------------------------
      003408                       7967 _update_anim:
                                   7968 ;pocket_platformer.c:1095: if (player.anim_timer) { player.anim_timer--; }
      003408 21r26r00         [10] 7969 	ld	hl, #_player + 26
      00340B 7E               [ 7] 7970 	ld	a, (hl)
      00340C B7               [ 4] 7971 	or	a, a
      00340D 28 03            [12] 7972 	jr	Z, 00102$
      00340F 3D               [ 4] 7973 	dec	a
      003410 77               [ 7] 7974 	ld	(hl), a
      003411 C9               [10] 7975 	ret
      003412                       7976 00102$:
                                   7977 ;pocket_platformer.c:1096: else { player.anim_timer = 5; player.anim_frame = (player.anim_frame + 1) & 3; }
      003412 36 05            [10] 7978 	ld	(hl), #0x05
      003414 01r25r00         [10] 7979 	ld	bc, #_player + 25
      003417 0A               [ 7] 7980 	ld	a, (bc)
      003418 3C               [ 4] 7981 	inc	a
      003419 E6 03            [ 7] 7982 	and	a, #0x03
      00341B 02               [ 7] 7983 	ld	(bc), a
                                   7984 ;pocket_platformer.c:1097: }
      00341C C9               [10] 7985 	ret
                                   7986 ;pocket_platformer.c:1099: static void load_level(unsigned char n) {
                                   7987 ;	---------------------------------
                                   7988 ; Function load_level
                                   7989 ; ---------------------------------
      00341D                       7990 _load_level:
      00341D DD E5            [15] 7991 	push	ix
      00341F DD 21 00 00      [14] 7992 	ld	ix,#0
      003423 DD 39            [15] 7993 	add	ix,sp
      003425 21 F7 FF         [10] 7994 	ld	hl, #-9
      003428 39               [11] 7995 	add	hl, sp
      003429 F9               [ 6] 7996 	ld	sp, hl
      00342A 4F               [ 4] 7997 	ld	c, a
                                   7998 ;pocket_platformer.c:1101: map_res_bank();
      00342B 21 FF FF         [10] 7999 	ld	hl, #_ROM_bank_to_be_mapped_on_slot2
      00342E 36 02            [10] 8000 	ld	(hl), #0x02
                                   8001 ;pocket_platformer.c:1102: cur_level   = get_level(n);
      003430 79               [ 4] 8002 	ld	a, c
      003431 CDr5Dr00         [17] 8003 	call	_get_level
      003434 ED 53r5Cr02      [20] 8004 	ld	(_cur_level), de
                                   8005 ;pocket_platformer.c:1103: cur_map     = (unsigned char *)cur_level + sizeof(level_header);
      003438 ED 4Br5Cr02      [20] 8006 	ld	bc, (_cur_level)
      00343C 21 04 00         [10] 8007 	ld	hl, #0x0004
      00343F 09               [11] 8008 	add	hl, bc
      003440 22r5Er02         [16] 8009 	ld	(_cur_map), hl
                                   8010 ;pocket_platformer.c:1105: (unsigned int)cur_level->map_w * cur_level->map_h);
      003443 2Ar5Cr02         [16] 8011 	ld	hl, (_cur_level)
      003446 4E               [ 7] 8012 	ld	c, (hl)
      003447 23               [ 6] 8013 	inc	hl
      003448 06 00            [ 7] 8014 	ld	b, #0x00
      00344A 5E               [ 7] 8015 	ld	e, (hl)
      00344B 16 00            [ 7] 8016 	ld	d, #0x00
      00344D 69               [ 4] 8017 	ld	l, c
                                   8018 ;	spillPairReg hl
                                   8019 ;	spillPairReg hl
      00344E 60               [ 4] 8020 	ld	h, b
                                   8021 ;	spillPairReg hl
                                   8022 ;	spillPairReg hl
      00344F CDr00r00         [17] 8023 	call	__mulint
      003452 2Ar5Er02         [16] 8024 	ld	hl, (_cur_map)
      003455 19               [11] 8025 	add	hl, de
      003456 22r60r02         [16] 8026 	ld	(_cur_objects), hl
                                   8027 ;pocket_platformer.c:1107: for (i = 0; i < MAX_OBJECTS; i++) coin_collected[i] = 0;
      003459 0E 00            [ 7] 8028 	ld	c, #0x00
      00345B                       8029 00118$:
      00345B 21r30r00         [10] 8030 	ld	hl, #_coin_collected
      00345E 06 00            [ 7] 8031 	ld	b, #0x00
      003460 09               [11] 8032 	add	hl, bc
      003461 36 00            [10] 8033 	ld	(hl), #0x00
      003463 0C               [ 4] 8034 	inc	c
      003464 79               [ 4] 8035 	ld	a, c
      003465 D6 80            [ 7] 8036 	sub	a, #0x80
      003467 38 F2            [12] 8037 	jr	C, 00118$
                                   8038 ;pocket_platformer.c:1108: for (i = 0; i < MAX_DISP; i++) disp_blocks[i].frame = 0;
      003469 01rECr01         [10] 8039 	ld	bc, #_disp_blocks+0
      00346C 1E 00            [ 7] 8040 	ld	e, #0x00
      00346E                       8041 00120$:
      00346E 6B               [ 4] 8042 	ld	l, e
                                   8043 ;	spillPairReg hl
                                   8044 ;	spillPairReg hl
      00346F 26 00            [ 7] 8045 	ld	h, #0x00
                                   8046 ;	spillPairReg hl
                                   8047 ;	spillPairReg hl
      003471 29               [11] 8048 	add	hl, hl
      003472 29               [11] 8049 	add	hl, hl
      003473 09               [11] 8050 	add	hl, bc
      003474 23               [ 6] 8051 	inc	hl
      003475 23               [ 6] 8052 	inc	hl
      003476 36 00            [10] 8053 	ld	(hl), #0x00
      003478 1C               [ 4] 8054 	inc	e
      003479 7B               [ 4] 8055 	ld	a, e
      00347A D6 10            [ 7] 8056 	sub	a, #0x10
      00347C 38 F0            [12] 8057 	jr	C, 00120$
                                   8058 ;pocket_platformer.c:1111: rb_block_count  = 0;
      00347E 21rE4r01         [10] 8059 	ld	hl, #_rb_block_count
      003481 36 00            [10] 8060 	ld	(hl), #0x00
                                   8061 ;pocket_platformer.c:1112: rb_switch_count = 0;
      003483 21rE5r01         [10] 8062 	ld	hl, #_rb_switch_count
      003486 36 00            [10] 8063 	ld	(hl), #0x00
                                   8064 ;pocket_platformer.c:1113: rb_red_active   = 1;   /* red starts solid per pocket-platformer default */
      003488 21rE6r01         [10] 8065 	ld	hl, #_rb_red_active
      00348B 36 01            [10] 8066 	ld	(hl), #0x01
                                   8067 ;pocket_platformer.c:1114: rb_switch_locked = 0;
      00348D 21rE7r01         [10] 8068 	ld	hl, #_rb_switch_locked
      003490 36 00            [10] 8069 	ld	(hl), #0x00
                                   8070 ;pocket_platformer.c:1116: vp_block_count  = 0;
      003492 21r42r01         [10] 8071 	ld	hl, #_vp_block_count
      003495 36 00            [10] 8072 	ld	(hl), #0x00
                                   8073 ;pocket_platformer.c:1117: vp_violet_active = 0;  /* state = "violet turn" (violet passable, pink solid) */
      003497 21r43r01         [10] 8074 	ld	hl, #_vp_violet_active
      00349A 36 00            [10] 8075 	ld	(hl), #0x00
                                   8076 ;pocket_platformer.c:1118: map_res_bank();
      00349C 21 FF FF         [10] 8077 	ld	hl, #_ROM_bank_to_be_mapped_on_slot2
      00349F 36 02            [10] 8078 	ld	(hl), #0x02
                                   8079 ;pocket_platformer.c:1119: for (i = 0; i < cur_level->obj_count; i++) {
      0034A1 DD 36 FF 00      [19] 8080 	ld	-1 (ix), #0x00
      0034A5                       8081 00123$:
      0034A5 2Ar5Cr02         [16] 8082 	ld	hl, (_cur_level)
      0034A8 23               [ 6] 8083 	inc	hl
      0034A9 23               [ 6] 8084 	inc	hl
      0034AA 4E               [ 7] 8085 	ld	c, (hl)
      0034AB DD 7E FF         [19] 8086 	ld	a, -1 (ix)
      0034AE 91               [ 4] 8087 	sub	a, c
      0034AF D2r43r36         [10] 8088 	jp	NC, 00114$
                                   8089 ;pocket_platformer.c:1120: level_object *obj = &cur_objects[i];
      0034B2 DD 4E FF         [19] 8090 	ld	c, -1 (ix)
      0034B5 06 00            [ 7] 8091 	ld	b, #0x00
      0034B7 69               [ 4] 8092 	ld	l, c
      0034B8 60               [ 4] 8093 	ld	h, b
      0034B9 29               [11] 8094 	add	hl, hl
      0034BA 09               [11] 8095 	add	hl, bc
      0034BB EB               [ 4] 8096 	ex	de, hl
      0034BC 2Ar60r02         [16] 8097 	ld	hl, (_cur_objects)
      0034BF 19               [11] 8098 	add	hl, de
      0034C0 E3               [19] 8099 	ex	(sp), hl
                                   8100 ;pocket_platformer.c:1121: if ((obj->type == 7 || obj->type == 8) && rb_block_count < MAX_RB_BLOCKS) {
      0034C1 DD 7E F7         [19] 8101 	ld	a, -9 (ix)
      0034C4 C6 02            [ 7] 8102 	add	a, #0x02
      0034C6 DD 77 FD         [19] 8103 	ld	-3 (ix), a
      0034C9 DD 7E F8         [19] 8104 	ld	a, -8 (ix)
      0034CC CE 00            [ 7] 8105 	adc	a, #0x00
      0034CE DD 77 FE         [19] 8106 	ld	-2 (ix), a
      0034D1 DD 6E FD         [19] 8107 	ld	l, -3 (ix)
      0034D4 DD 66 FE         [19] 8108 	ld	h, -2 (ix)
      0034D7 4E               [ 7] 8109 	ld	c, (hl)
                                   8110 ;pocket_platformer.c:1123: rb_blocks[rb_block_count].ty     = obj->y;
      0034D8 DD 7E F7         [19] 8111 	ld	a, -9 (ix)
      0034DB C6 01            [ 7] 8112 	add	a, #0x01
      0034DD DD 77 F9         [19] 8113 	ld	-7 (ix), a
      0034E0 DD 7E F8         [19] 8114 	ld	a, -8 (ix)
      0034E3 CE 00            [ 7] 8115 	adc	a, #0x00
      0034E5 DD 77 FA         [19] 8116 	ld	-6 (ix), a
                                   8117 ;pocket_platformer.c:1121: if ((obj->type == 7 || obj->type == 8) && rb_block_count < MAX_RB_BLOCKS) {
      0034E8 79               [ 4] 8118 	ld	a,c
      0034E9 FE 07            [ 7] 8119 	cp	a,#0x07
      0034EB 28 04            [12] 8120 	jr	Z, 00106$
      0034ED D6 08            [ 7] 8121 	sub	a, #0x08
      0034EF 20 57            [12] 8122 	jr	NZ, 00104$
      0034F1                       8123 00106$:
      0034F1 3ArE4r01         [13] 8124 	ld	a, (_rb_block_count+0)
      0034F4 D6 30            [ 7] 8125 	sub	a, #0x30
      0034F6 30 50            [12] 8126 	jr	NC, 00104$
                                   8127 ;pocket_platformer.c:1122: rb_blocks[rb_block_count].tx     = obj->x;
      0034F8 ED 4BrE4r01      [20] 8128 	ld	bc, (_rb_block_count)
      0034FC 06 00            [ 7] 8129 	ld	b, #0x00
      0034FE 69               [ 4] 8130 	ld	l, c
      0034FF 60               [ 4] 8131 	ld	h, b
      003500 29               [11] 8132 	add	hl, hl
      003501 09               [11] 8133 	add	hl, bc
      003502 EB               [ 4] 8134 	ex	de, hl
      003503 21r44r01         [10] 8135 	ld	hl, #_rb_blocks
      003506 19               [11] 8136 	add	hl, de
      003507 EB               [ 4] 8137 	ex	de, hl
      003508 E1               [10] 8138 	pop	hl
      003509 E5               [11] 8139 	push	hl
      00350A 7E               [ 7] 8140 	ld	a, (hl)
      00350B 12               [ 7] 8141 	ld	(de), a
                                   8142 ;pocket_platformer.c:1123: rb_blocks[rb_block_count].ty     = obj->y;
      00350C ED 4BrE4r01      [20] 8143 	ld	bc, (_rb_block_count)
      003510 06 00            [ 7] 8144 	ld	b, #0x00
      003512 69               [ 4] 8145 	ld	l, c
      003513 60               [ 4] 8146 	ld	h, b
      003514 29               [11] 8147 	add	hl, hl
      003515 09               [11] 8148 	add	hl, bc
      003516 11r44r01         [10] 8149 	ld	de, #_rb_blocks
      003519 19               [11] 8150 	add	hl, de
      00351A EB               [ 4] 8151 	ex	de, hl
      00351B 13               [ 6] 8152 	inc	de
      00351C DD 6E F9         [19] 8153 	ld	l, -7 (ix)
      00351F DD 66 FA         [19] 8154 	ld	h, -6 (ix)
      003522 7E               [ 7] 8155 	ld	a, (hl)
      003523 12               [ 7] 8156 	ld	(de), a
                                   8157 ;pocket_platformer.c:1124: rb_blocks[rb_block_count].is_red = (obj->type == 7);
      003524 ED 4BrE4r01      [20] 8158 	ld	bc, (_rb_block_count)
      003528 06 00            [ 7] 8159 	ld	b, #0x00
      00352A 69               [ 4] 8160 	ld	l, c
      00352B 60               [ 4] 8161 	ld	h, b
      00352C 29               [11] 8162 	add	hl, hl
      00352D 09               [11] 8163 	add	hl, bc
      00352E 11r44r01         [10] 8164 	ld	de, #_rb_blocks
      003531 19               [11] 8165 	add	hl, de
      003532 EB               [ 4] 8166 	ex	de, hl
      003533 13               [ 6] 8167 	inc	de
      003534 13               [ 6] 8168 	inc	de
      003535 DD 6E FD         [19] 8169 	ld	l, -3 (ix)
      003538 DD 66 FE         [19] 8170 	ld	h, -2 (ix)
      00353B 7E               [ 7] 8171 	ld	a, (hl)
      00353C D6 07            [ 7] 8172 	sub	a, #0x07
      00353E 3E 01            [ 7] 8173 	ld	a, #0x01
      003540 28 01            [12] 8174 	jr	Z, 00212$
      003542 AF               [ 4] 8175 	xor	a, a
      003543                       8176 00212$:
      003543 12               [ 7] 8177 	ld	(de), a
                                   8178 ;pocket_platformer.c:1125: rb_block_count++;
      003544 21rE4r01         [10] 8179 	ld	hl, #_rb_block_count
      003547 34               [11] 8180 	inc	(hl)
      003548                       8181 00104$:
                                   8182 ;pocket_platformer.c:1127: if ((obj->type == 10 || obj->type == 11) && vp_block_count < MAX_VP_BLOCKS) {
      003548 DD 6E FD         [19] 8183 	ld	l, -3 (ix)
      00354B DD 66 FE         [19] 8184 	ld	h, -2 (ix)
      00354E 7E               [ 7] 8185 	ld	a, (hl)
      00354F FE 0A            [ 7] 8186 	cp	a, #0x0a
      003551 28 04            [12] 8187 	jr	Z, 00110$
      003553 D6 0B            [ 7] 8188 	sub	a, #0x0b
      003555 20 57            [12] 8189 	jr	NZ, 00108$
      003557                       8190 00110$:
      003557 3Ar42r01         [13] 8191 	ld	a, (_vp_block_count+0)
      00355A D6 30            [ 7] 8192 	sub	a, #0x30
      00355C 30 50            [12] 8193 	jr	NC, 00108$
                                   8194 ;pocket_platformer.c:1128: vp_blocks[vp_block_count].tx        = obj->x;
      00355E ED 4Br42r01      [20] 8195 	ld	bc, (_vp_block_count)
      003562 06 00            [ 7] 8196 	ld	b, #0x00
      003564 69               [ 4] 8197 	ld	l, c
      003565 60               [ 4] 8198 	ld	h, b
      003566 29               [11] 8199 	add	hl, hl
      003567 09               [11] 8200 	add	hl, bc
      003568 EB               [ 4] 8201 	ex	de, hl
      003569 21rB2r00         [10] 8202 	ld	hl, #_vp_blocks
      00356C 19               [11] 8203 	add	hl, de
      00356D EB               [ 4] 8204 	ex	de, hl
      00356E E1               [10] 8205 	pop	hl
      00356F E5               [11] 8206 	push	hl
      003570 7E               [ 7] 8207 	ld	a, (hl)
      003571 12               [ 7] 8208 	ld	(de), a
                                   8209 ;pocket_platformer.c:1129: vp_blocks[vp_block_count].ty        = obj->y;
      003572 ED 4Br42r01      [20] 8210 	ld	bc, (_vp_block_count)
      003576 06 00            [ 7] 8211 	ld	b, #0x00
      003578 69               [ 4] 8212 	ld	l, c
      003579 60               [ 4] 8213 	ld	h, b
      00357A 29               [11] 8214 	add	hl, hl
      00357B 09               [11] 8215 	add	hl, bc
      00357C 11rB2r00         [10] 8216 	ld	de, #_vp_blocks
      00357F 19               [11] 8217 	add	hl, de
      003580 EB               [ 4] 8218 	ex	de, hl
      003581 13               [ 6] 8219 	inc	de
      003582 DD 6E F9         [19] 8220 	ld	l, -7 (ix)
      003585 DD 66 FA         [19] 8221 	ld	h, -6 (ix)
      003588 7E               [ 7] 8222 	ld	a, (hl)
      003589 12               [ 7] 8223 	ld	(de), a
                                   8224 ;pocket_platformer.c:1130: vp_blocks[vp_block_count].is_violet = (obj->type == 10);
      00358A ED 4Br42r01      [20] 8225 	ld	bc, (_vp_block_count)
      00358E 06 00            [ 7] 8226 	ld	b, #0x00
      003590 69               [ 4] 8227 	ld	l, c
      003591 60               [ 4] 8228 	ld	h, b
      003592 29               [11] 8229 	add	hl, hl
      003593 09               [11] 8230 	add	hl, bc
      003594 11rB2r00         [10] 8231 	ld	de, #_vp_blocks
      003597 19               [11] 8232 	add	hl, de
      003598 EB               [ 4] 8233 	ex	de, hl
      003599 13               [ 6] 8234 	inc	de
      00359A 13               [ 6] 8235 	inc	de
      00359B DD 6E FD         [19] 8236 	ld	l, -3 (ix)
      00359E DD 66 FE         [19] 8237 	ld	h, -2 (ix)
      0035A1 7E               [ 7] 8238 	ld	a, (hl)
      0035A2 D6 0A            [ 7] 8239 	sub	a, #0x0a
      0035A4 3E 01            [ 7] 8240 	ld	a, #0x01
      0035A6 28 01            [12] 8241 	jr	Z, 00217$
      0035A8 AF               [ 4] 8242 	xor	a, a
      0035A9                       8243 00217$:
      0035A9 12               [ 7] 8244 	ld	(de), a
                                   8245 ;pocket_platformer.c:1131: vp_block_count++;
      0035AA 21r42r01         [10] 8246 	ld	hl, #_vp_block_count
      0035AD 34               [11] 8247 	inc	(hl)
      0035AE                       8248 00108$:
                                   8249 ;pocket_platformer.c:1133: if (obj->type == 9 && rb_switch_count < MAX_RB_SWITCHES) {
      0035AE DD 6E FD         [19] 8250 	ld	l, -3 (ix)
      0035B1 DD 66 FE         [19] 8251 	ld	h, -2 (ix)
      0035B4 7E               [ 7] 8252 	ld	a, (hl)
      0035B5 D6 09            [ 7] 8253 	sub	a, #0x09
      0035B7 C2r3Dr36         [10] 8254 	jp	NZ,00124$
      0035BA 3ArE5r01         [13] 8255 	ld	a, (_rb_switch_count+0)
      0035BD D6 08            [ 7] 8256 	sub	a, #0x08
      0035BF 30 7C            [12] 8257 	jr	NC, 00124$
                                   8258 ;pocket_platformer.c:1134: rb_switches[rb_switch_count].tx = obj->x;
      0035C1 3ArE5r01         [13] 8259 	ld	a, (_rb_switch_count+0)
      0035C4 DD 77 FD         [19] 8260 	ld	-3 (ix), a
      0035C7 DD 36 FE 00      [19] 8261 	ld	-2 (ix), #0x00
      0035CB DD 7E FD         [19] 8262 	ld	a, -3 (ix)
      0035CE DD 77 FB         [19] 8263 	ld	-5 (ix), a
      0035D1 DD 7E FE         [19] 8264 	ld	a, -2 (ix)
      0035D4 DD 77 FC         [19] 8265 	ld	-4 (ix), a
      0035D7 DD CB FB 26      [23] 8266 	sla	-5 (ix)
      0035DB DD CB FC 16      [23] 8267 	rl	-4 (ix)
      0035DF 3ErD4            [ 7] 8268 	ld	a, #<(_rb_switches)
      0035E1 DD 86 FB         [19] 8269 	add	a, -5 (ix)
      0035E4 DD 77 FD         [19] 8270 	ld	-3 (ix), a
      0035E7 3Es01            [ 7] 8271 	ld	a, #>(_rb_switches)
      0035E9 DD 8E FC         [19] 8272 	adc	a, -4 (ix)
      0035EC DD 77 FE         [19] 8273 	ld	-2 (ix), a
      0035EF E1               [10] 8274 	pop	hl
      0035F0 E5               [11] 8275 	push	hl
      0035F1 7E               [ 7] 8276 	ld	a, (hl)
      0035F2 DD 6E FD         [19] 8277 	ld	l, -3 (ix)
      0035F5 DD 66 FE         [19] 8278 	ld	h, -2 (ix)
      0035F8 77               [ 7] 8279 	ld	(hl), a
                                   8280 ;pocket_platformer.c:1135: rb_switches[rb_switch_count].ty = obj->y;
      0035F9 3ArE5r01         [13] 8281 	ld	a, (_rb_switch_count+0)
      0035FC DD 77 FD         [19] 8282 	ld	-3 (ix), a
      0035FF DD 36 FE 00      [19] 8283 	ld	-2 (ix), #0x00
      003603 DD CB FD 26      [23] 8284 	sla	-3 (ix)
      003607 DD CB FE 16      [23] 8285 	rl	-2 (ix)
      00360B 3ErD4            [ 7] 8286 	ld	a, #<(_rb_switches)
      00360D DD 86 FD         [19] 8287 	add	a, -3 (ix)
      003610 DD 77 FB         [19] 8288 	ld	-5 (ix), a
      003613 3Es01            [ 7] 8289 	ld	a, #>(_rb_switches)
      003615 DD 8E FE         [19] 8290 	adc	a, -2 (ix)
      003618 DD 77 FC         [19] 8291 	ld	-4 (ix), a
      00361B DD 7E FB         [19] 8292 	ld	a, -5 (ix)
      00361E C6 01            [ 7] 8293 	add	a, #0x01
      003620 DD 77 FD         [19] 8294 	ld	-3 (ix), a
      003623 DD 7E FC         [19] 8295 	ld	a, -4 (ix)
      003626 CE 00            [ 7] 8296 	adc	a, #0x00
      003628 DD 77 FE         [19] 8297 	ld	-2 (ix), a
      00362B DD 6E F9         [19] 8298 	ld	l, -7 (ix)
      00362E DD 66 FA         [19] 8299 	ld	h, -6 (ix)
      003631 7E               [ 7] 8300 	ld	a, (hl)
      003632 DD 6E FD         [19] 8301 	ld	l, -3 (ix)
      003635 DD 66 FE         [19] 8302 	ld	h, -2 (ix)
      003638 77               [ 7] 8303 	ld	(hl), a
                                   8304 ;pocket_platformer.c:1136: rb_switch_count++;
      003639 21rE5r01         [10] 8305 	ld	hl, #_rb_switch_count
      00363C 34               [11] 8306 	inc	(hl)
      00363D                       8307 00124$:
                                   8308 ;pocket_platformer.c:1119: for (i = 0; i < cur_level->obj_count; i++) {
      00363D DD 34 FF         [23] 8309 	inc	-1 (ix)
      003640 C3rA5r34         [10] 8310 	jp	00123$
      003643                       8311 00114$:
                                   8312 ;pocket_platformer.c:1139: level_complete = player_died = 0;
      003643 21rB1r00         [10] 8313 	ld	hl, #_player_died
      003646 36 00            [10] 8314 	ld	(hl), #0x00
      003648 21rB0r00         [10] 8315 	ld	hl, #_level_complete
      00364B 36 00            [10] 8316 	ld	(hl), #0x00
                                   8317 ;pocket_platformer.c:1140: camera_x = prev_cam_x = 0;
      00364D 21 00 00         [10] 8318 	ld	hl, #0x0000
      003650 22r2Er00         [16] 8319 	ld	(_prev_cam_x), hl
      003653 22r2Cr00         [16] 8320 	ld	(_camera_x), hl
                                   8321 ;pocket_platformer.c:1143: player.x  = FP(2 * TILE_SIZE);
      003656 26 10            [ 7] 8322 	ld	h, #0x10
      003658 22r0Cr00         [16] 8323 	ld	(_player), hl
      00365B 65               [ 4] 8324 	ld	h, l
      00365C 22r0Er00         [16] 8325 	ld	(_player+2), hl
                                   8326 ;pocket_platformer.c:1144: player.y  = FP(4 * TILE_SIZE);
      00365F 11r0Cr00         [10] 8327 	ld	de, #_player+0
      003662 26 20            [ 7] 8328 	ld	h, #0x20
      003664 22r10r00         [16] 8329 	ld	((_player + 4)), hl
      003667 65               [ 4] 8330 	ld	h, l
      003668 22r12r00         [16] 8331 	ld	((_player + 4)+2), hl
                                   8332 ;pocket_platformer.c:1145: player.vx = player.vy = 0;
      00366B 22r18r00         [16] 8333 	ld	((_player + 12)), hl
      00366E 22r1Ar00         [16] 8334 	ld	((_player + 12)+2), hl
      003671 22r14r00         [16] 8335 	ld	((_player + 8)), hl
      003674 22r16r00         [16] 8336 	ld	((_player + 8)+2), hl
                                   8337 ;pocket_platformer.c:1146: player.on_ground = player.jump_frames = player.double_jump_used = 0;
      003677 21r24r00         [10] 8338 	ld	hl, #(_player + 24)
      00367A 36 00            [10] 8339 	ld	(hl), #0x00
      00367C 21r22r00         [10] 8340 	ld	hl, #(_player + 22)
      00367F 36 00            [10] 8341 	ld	(hl), #0x00
      003681 21r1Cr00         [10] 8342 	ld	hl, #(_player + 16)
      003684 36 00            [10] 8343 	ld	(hl), #0x00
                                   8344 ;pocket_platformer.c:1147: treadmill_bonus = 0;
      003686 AF               [ 4] 8345 	xor	a, a
      003687 32r00r00         [13] 8346 	ld	(_treadmill_bonus+0), a
      00368A 32r01r00         [13] 8347 	ld	(_treadmill_bonus+1), a
      00368D 32r02r00         [13] 8348 	ld	(_treadmill_bonus+2), a
      003690 32r03r00         [13] 8349 	ld	(_treadmill_bonus+3), a
                                   8350 ;pocket_platformer.c:1148: player.falling = 1; player.jumping = 0; player.wall_jumping = 0; player.wall_push_frames = 0;
      003693 21r1Dr00         [10] 8351 	ld	hl, #(_player + 17)
      003696 36 01            [10] 8352 	ld	(hl), #0x01
      003698 21r1Er00         [10] 8353 	ld	hl, #(_player + 18)
      00369B 36 00            [10] 8354 	ld	(hl), #0x00
      00369D 21r1Fr00         [10] 8355 	ld	hl, #(_player + 19)
      0036A0 36 00            [10] 8356 	ld	(hl), #0x00
      0036A2 21r21r00         [10] 8357 	ld	hl, #(_player + 21)
      0036A5 36 00            [10] 8358 	ld	(hl), #0x00
                                   8359 ;pocket_platformer.c:1149: player.facing_left = player.anim_frame = player.anim_timer = 0;
      0036A7 21r26r00         [10] 8360 	ld	hl, #(_player + 26)
      0036AA 36 00            [10] 8361 	ld	(hl), #0x00
      0036AC 21r25r00         [10] 8362 	ld	hl, #(_player + 25)
      0036AF 36 00            [10] 8363 	ld	(hl), #0x00
      0036B1 21r23r00         [10] 8364 	ld	hl, #(_player + 23)
      0036B4 36 00            [10] 8365 	ld	(hl), #0x00
                                   8366 ;pocket_platformer.c:1151: for (i = 0; i < cur_level->obj_count; i++) {
      0036B6 DD 36 FF 00      [19] 8367 	ld	-1 (ix), #0x00
      0036BA                       8368 00126$:
      0036BA 2Ar5Cr02         [16] 8369 	ld	hl, (_cur_level)
      0036BD 23               [ 6] 8370 	inc	hl
      0036BE 23               [ 6] 8371 	inc	hl
      0036BF DD 7E FF         [19] 8372 	ld	a,-1 (ix)
      0036C2 96               [ 7] 8373 	sub	a,(hl)
      0036C3 D2r4Cr37         [10] 8374 	jp	NC, 00117$
                                   8375 ;pocket_platformer.c:1152: if (cur_objects[i].type == OBJ_START_FLAG) {
      0036C6 DD 4E FF         [19] 8376 	ld	c, -1 (ix)
      0036C9 06 00            [ 7] 8377 	ld	b, #0x00
      0036CB 69               [ 4] 8378 	ld	l, c
      0036CC 60               [ 4] 8379 	ld	h, b
      0036CD 29               [11] 8380 	add	hl, hl
      0036CE 09               [11] 8381 	add	hl, bc
      0036CF 4D               [ 4] 8382 	ld	c, l
      0036D0 44               [ 4] 8383 	ld	b, h
      0036D1 3Ar60r02         [13] 8384 	ld	a, (_cur_objects+0)
      0036D4 81               [ 4] 8385 	add	a, c
      0036D5 DD 77 FD         [19] 8386 	ld	-3 (ix), a
      0036D8 3Ar61r02         [13] 8387 	ld	a, (_cur_objects+1)
      0036DB 88               [ 4] 8388 	adc	a, b
      0036DC DD 77 FE         [19] 8389 	ld	-2 (ix), a
      0036DF DD 6E FD         [19] 8390 	ld	l, -3 (ix)
                                   8391 ;	spillPairReg hl
                                   8392 ;	spillPairReg hl
      0036E2 DD 66 FE         [19] 8393 	ld	h, -2 (ix)
                                   8394 ;	spillPairReg hl
                                   8395 ;	spillPairReg hl
      0036E5 23               [ 6] 8396 	inc	hl
      0036E6 23               [ 6] 8397 	inc	hl
      0036E7 7E               [ 7] 8398 	ld	a, (hl)
      0036E8 3D               [ 4] 8399 	dec	a
      0036E9 20 5B            [12] 8400 	jr	NZ, 00127$
                                   8401 ;pocket_platformer.c:1153: player.x = (long)cur_objects[i].x * TILE_SIZE * FP_ONE;
      0036EB DD 6E FD         [19] 8402 	ld	l, -3 (ix)
      0036EE DD 66 FE         [19] 8403 	ld	h, -2 (ix)
      0036F1 7E               [ 7] 8404 	ld	a, (hl)
      0036F2 DD 77 FC         [19] 8405 	ld	-4 (ix), a
      0036F5 AF               [ 4] 8406 	xor	a, a
      0036F6 DD 77 FD         [19] 8407 	ld	-3 (ix), a
      0036F9 DD 77 FE         [19] 8408 	ld	-2 (ix), a
      0036FC DD 77 FF         [19] 8409 	ld	-1 (ix), a
      0036FF 3E 0B            [ 7] 8410 	ld	a, #0x0b
      003701                       8411 00224$:
      003701 DD CB FC 26      [23] 8412 	sla	-4 (ix)
      003705 DD CB FD 16      [23] 8413 	rl	-3 (ix)
      003709 DD CB FE 16      [23] 8414 	rl	-2 (ix)
      00370D DD CB FF 16      [23] 8415 	rl	-1 (ix)
      003711 3D               [ 4] 8416 	dec	a
      003712 20 ED            [12] 8417 	jr	NZ,00224$
      003714 C5               [11] 8418 	push	bc
      003715 21 07 00         [10] 8419 	ld	hl, #7
      003718 39               [11] 8420 	add	hl, sp
      003719 01 04 00         [10] 8421 	ld	bc, #0x0004
      00371C ED B0            [21] 8422 	ldir
      00371E C1               [10] 8423 	pop	bc
                                   8424 ;pocket_platformer.c:1155: player.y = (long)(cur_objects[i].y - 1) * TILE_SIZE * FP_ONE;
      00371F 2Ar60r02         [16] 8425 	ld	hl, (_cur_objects)
      003722 09               [11] 8426 	add	hl, bc
      003723 23               [ 6] 8427 	inc	hl
      003724 4E               [ 7] 8428 	ld	c, (hl)
      003725 06 00            [ 7] 8429 	ld	b, #0x00
      003727 0B               [ 6] 8430 	dec	bc
      003728 78               [ 4] 8431 	ld	a, b
      003729 07               [ 4] 8432 	rlca
      00372A ED 62            [15] 8433 	sbc	hl, hl
      00372C 58               [ 4] 8434 	ld	e, b
      00372D 41               [ 4] 8435 	ld	b, c
      00372E 55               [ 4] 8436 	ld	d, l
      00372F 0E 00            [ 7] 8437 	ld	c, #0x00
      003731 3E 03            [ 7] 8438 	ld	a, #0x03
      003733                       8439 00226$:
      003733 CB 20            [ 8] 8440 	sla	b
      003735 CB 13            [ 8] 8441 	rl	e
      003737 CB 12            [ 8] 8442 	rl	d
      003739 3D               [ 4] 8443 	dec	a
      00373A 20 F7            [12] 8444 	jr	NZ,00226$
      00373C ED 43r10r00      [20] 8445 	ld	((_player + 4)), bc
      003740 ED 53r12r00      [20] 8446 	ld	((_player + 4)+2), de
                                   8447 ;pocket_platformer.c:1156: break;
      003744 18 06            [12] 8448 	jr	00117$
      003746                       8449 00127$:
                                   8450 ;pocket_platformer.c:1151: for (i = 0; i < cur_level->obj_count; i++) {
      003746 DD 34 FF         [23] 8451 	inc	-1 (ix)
      003749 C3rBAr36         [10] 8452 	jp	00126$
      00374C                       8453 00117$:
                                   8454 ;pocket_platformer.c:1160: SMS_waitForVBlank();
      00374C CDr00r00         [17] 8455 	call	_SMS_waitForVBlank
                                   8456 ;pocket_platformer.c:1161: SMS_displayOff();
      00374F 21 40 01         [10] 8457 	ld	hl, #0x0140
      003752 CDr00r00         [17] 8458 	call	_SMS_VDPturnOffFeature
                                   8459 ;pocket_platformer.c:1162: SMS_VRAMmemsetW(0x3800, 0, 0x700);
      003755 21 00 07         [10] 8460 	ld	hl, #0x0700
      003758 E5               [11] 8461 	push	hl
      003759 11 00 00         [10] 8462 	ld	de, #0x0000
      00375C 26 38            [ 7] 8463 	ld	h, #0x38
      00375E CDr00r00         [17] 8464 	call	_SMS_VRAMmemsetW
                                   8465 ;pocket_platformer.c:1163: draw_tilemap_full();
      003761 CDr2Dr0A         [17] 8466 	call	_draw_tilemap_full
                                   8467 ;pocket_platformer.c:1164: SMS_displayOn();
      003764 21 40 01         [10] 8468 	ld	hl, #0x0140
      003767 CDr00r00         [17] 8469 	call	_SMS_VDPturnOnFeature
                                   8470 ;pocket_platformer.c:1165: }
      00376A DD F9            [10] 8471 	ld	sp, ix
      00376C DD E1            [14] 8472 	pop	ix
      00376E C9               [10] 8473 	ret
                                   8474 ;pocket_platformer.c:1167: static void death_sequence(unsigned char n) {
                                   8475 ;	---------------------------------
                                   8476 ; Function death_sequence
                                   8477 ; ---------------------------------
      00376F                       8478 _death_sequence:
      00376F 4F               [ 4] 8479 	ld	c, a
                                   8480 ;pocket_platformer.c:1169: for (i = 0; i < 8; i++) {
      003770 06 00            [ 7] 8481 	ld	b, #0x00
      003772                       8482 00102$:
                                   8483 ;pocket_platformer.c:1170: SMS_waitForVBlank();
      003772 C5               [11] 8484 	push	bc
      003773 CDr00r00         [17] 8485 	call	_SMS_waitForVBlank
      003776 C1               [10] 8486 	pop	bc
                                   8487 ;pocket_platformer.c:1171: SMS_setBackdropColor(i & 1 ? 0x3F : 0);
      003777 CB 40            [ 8] 8488 	bit	0, b
      003779 28 05            [12] 8489 	jr	Z, 00106$
      00377B 21 3F 00         [10] 8490 	ld	hl, #0x003f
      00377E 18 03            [12] 8491 	jr	00107$
      003780                       8492 00106$:
      003780 21 00 00         [10] 8493 	ld	hl, #0x0000
      003783                       8494 00107$:
      003783 C5               [11] 8495 	push	bc
      003784 CDr00r00         [17] 8496 	call	_SMS_setBackdropColor
      003787 C1               [10] 8497 	pop	bc
                                   8498 ;pocket_platformer.c:1169: for (i = 0; i < 8; i++) {
      003788 04               [ 4] 8499 	inc	b
      003789 78               [ 4] 8500 	ld	a, b
      00378A D6 08            [ 7] 8501 	sub	a, #0x08
      00378C 38 E4            [12] 8502 	jr	C, 00102$
                                   8503 ;pocket_platformer.c:1173: SMS_setBackdropColor(0);
      00378E C5               [11] 8504 	push	bc
      00378F 2E 00            [ 7] 8505 	ld	l, #0x00
                                   8506 ;	spillPairReg hl
                                   8507 ;	spillPairReg hl
      003791 CDr00r00         [17] 8508 	call	_SMS_setBackdropColor
      003794 C1               [10] 8509 	pop	bc
                                   8510 ;pocket_platformer.c:1174: load_level(n);
      003795 79               [ 4] 8511 	ld	a, c
                                   8512 ;pocket_platformer.c:1175: }
      003796 C3r1Dr34         [10] 8513 	jp	_load_level
                                   8514 ;pocket_platformer.c:1180: static void gameplay_loop(void) {
                                   8515 ;	---------------------------------
                                   8516 ; Function gameplay_loop
                                   8517 ; ---------------------------------
      003799                       8518 _gameplay_loop:
      003799 DD E5            [15] 8519 	push	ix
      00379B DD 21 00 00      [14] 8520 	ld	ix,#0
      00379F DD 39            [15] 8521 	add	ix,sp
      0037A1 21 FB FF         [10] 8522 	ld	hl, #-5
      0037A4 39               [11] 8523 	add	hl, sp
      0037A5 F9               [ 6] 8524 	ld	sp, hl
                                   8525 ;pocket_platformer.c:1181: unsigned int joy = 0, joy_prev = 0, joy_pressed;
      0037A6 21 00 00         [10] 8526 	ld	hl, #0x0000
      0037A9 E3               [19] 8527 	ex	(sp), hl
                                   8528 ;pocket_platformer.c:1182: unsigned char level_n = 0, total;
      0037AA DD 36 FF 00      [19] 8529 	ld	-1 (ix), #0x00
                                   8530 ;pocket_platformer.c:1184: map_res_bank();
      0037AE 21 FF FF         [10] 8531 	ld	hl, #_ROM_bank_to_be_mapped_on_slot2
      0037B1 36 02            [10] 8532 	ld	(hl), #0x02
                                   8533 ;pocket_platformer.c:1185: total = res_header->level_count;
      0037B3 FD 2Ar00r00      [20] 8534 	ld	iy, (_res_header)
      0037B7 FD 7E 04         [19] 8535 	ld	a, 4 (iy)
      0037BA DD 77 FD         [19] 8536 	ld	-3 (ix), a
                                   8537 ;pocket_platformer.c:1186: load_level(0);
      0037BD AF               [ 4] 8538 	xor	a, a
      0037BE CDr1Dr34         [17] 8539 	call	_load_level
                                   8540 ;pocket_platformer.c:1188: while (1) {
      0037C1                       8541 00112$:
                                   8542 ;pocket_platformer.c:1189: SMS_waitForVBlank();
      0037C1 CDr00r00         [17] 8543 	call	_SMS_waitForVBlank
                                   8544 ;pocket_platformer.c:1190: joy_prev    = joy;
      0037C4 C1               [10] 8545 	pop	bc
      0037C5 C5               [11] 8546 	push	bc
                                   8547 ;pocket_platformer.c:1191: joy         = SMS_getKeysStatus();
      0037C6 C5               [11] 8548 	push	bc
      0037C7 CDr00r00         [17] 8549 	call	_SMS_getKeysStatus
      0037CA C1               [10] 8550 	pop	bc
      0037CB 33               [ 6] 8551 	inc	sp
      0037CC 33               [ 6] 8552 	inc	sp
      0037CD D5               [11] 8553 	push	de
                                   8554 ;pocket_platformer.c:1192: joy_pressed = joy & ~joy_prev;
      0037CE 79               [ 4] 8555 	ld	a, c
      0037CF 2F               [ 4] 8556 	cpl
      0037D0 4F               [ 4] 8557 	ld	c, a
      0037D1 78               [ 4] 8558 	ld	a, b
      0037D2 2F               [ 4] 8559 	cpl
      0037D3 47               [ 4] 8560 	ld	b, a
      0037D4 DD 7E FB         [19] 8561 	ld	a, -5 (ix)
      0037D7 A1               [ 4] 8562 	and	a, c
      0037D8 5F               [ 4] 8563 	ld	e, a
      0037D9 DD 7E FC         [19] 8564 	ld	a, -4 (ix)
      0037DC A0               [ 4] 8565 	and	a, b
      0037DD 57               [ 4] 8566 	ld	d, a
                                   8567 ;pocket_platformer.c:1194: prev_player_y = player.y;
      0037DE 21r10r00         [10] 8568 	ld	hl, #_player + 4
      0037E1 7E               [ 7] 8569 	ld	a, (hl)
      0037E2 23               [ 6] 8570 	inc	hl
      0037E3 32rE8r01         [13] 8571 	ld	(_prev_player_y+0), a
      0037E6 7E               [ 7] 8572 	ld	a, (hl)
      0037E7 23               [ 6] 8573 	inc	hl
      0037E8 32rE9r01         [13] 8574 	ld	(_prev_player_y+1), a
      0037EB 7E               [ 7] 8575 	ld	a, (hl)
      0037EC 23               [ 6] 8576 	inc	hl
      0037ED 32rEAr01         [13] 8577 	ld	(_prev_player_y+2), a
      0037F0 7E               [ 7] 8578 	ld	a, (hl)
      0037F1 32rEBr01         [13] 8579 	ld	(_prev_player_y+3), a
                                   8580 ;pocket_platformer.c:1195: handle_input(joy, joy_pressed);
      0037F4 E1               [10] 8581 	pop	hl
      0037F5 E5               [11] 8582 	push	hl
      0037F6 CDr98r10         [17] 8583 	call	_handle_input
                                   8584 ;pocket_platformer.c:1197: if (!player.on_ground && !player.jumping && !player.wall_jumping) player.falling = 1;
      0037F9 01r1Cr00         [10] 8585 	ld	bc, #_player + 16
      0037FC 0A               [ 7] 8586 	ld	a, (bc)
      0037FD B7               [ 4] 8587 	or	a, a
      0037FE 20 11            [12] 8588 	jr	NZ, 00102$
      003800 3Ar1Er00         [13] 8589 	ld	a, (#_player + 18)
      003803 B7               [ 4] 8590 	or	a, a
      003804 20 0B            [12] 8591 	jr	NZ, 00102$
      003806 3Ar1Fr00         [13] 8592 	ld	a, (#_player + 19)
      003809 B7               [ 4] 8593 	or	a, a
      00380A 20 05            [12] 8594 	jr	NZ, 00102$
      00380C 21r1Dr00         [10] 8595 	ld	hl, #(_player + 17)
      00380F 36 01            [10] 8596 	ld	(hl), #0x01
      003811                       8597 00102$:
                                   8598 ;pocket_platformer.c:1198: player.on_ground = 0;
      003811 AF               [ 4] 8599 	xor	a, a
      003812 02               [ 7] 8600 	ld	(bc), a
                                   8601 ;pocket_platformer.c:1199: apply_gravity();
      003813 CDr5Dr10         [17] 8602 	call	_apply_gravity
                                   8603 ;pocket_platformer.c:1200: apply_treadmill();
      003816 CDr72r0D         [17] 8604 	call	_apply_treadmill
                                   8605 ;pocket_platformer.c:1201: player.vx += treadmill_bonus;
      003819 ED 4Br14r00      [20] 8606 	ld	bc, (#(_player + 8) + 0)
      00381D ED 5Br16r00      [20] 8607 	ld	de, (#(_player + 8) + 2)
      003821 79               [ 4] 8608 	ld	a, c
      003822 21r00r00         [10] 8609 	ld	hl, #_treadmill_bonus
      003825 86               [ 7] 8610 	add	a, (hl)
      003826 23               [ 6] 8611 	inc	hl
      003827 4F               [ 4] 8612 	ld	c, a
      003828 78               [ 4] 8613 	ld	a, b
      003829 8E               [ 7] 8614 	adc	a, (hl)
      00382A 23               [ 6] 8615 	inc	hl
      00382B 47               [ 4] 8616 	ld	b, a
      00382C 7B               [ 4] 8617 	ld	a, e
      00382D 8E               [ 7] 8618 	adc	a, (hl)
      00382E 23               [ 6] 8619 	inc	hl
      00382F 5F               [ 4] 8620 	ld	e, a
      003830 7A               [ 4] 8621 	ld	a, d
      003831 8E               [ 7] 8622 	adc	a, (hl)
      003832 57               [ 4] 8623 	ld	d, a
      003833 ED 43r14r00      [20] 8624 	ld	((_player + 8)), bc
      003837 ED 53r16r00      [20] 8625 	ld	((_player + 8)+2), de
                                   8626 ;pocket_platformer.c:1202: move_player_x();
      00383B CDrEDr19         [17] 8627 	call	_move_player_x
                                   8628 ;pocket_platformer.c:1203: move_player_y();
      00383E CDr43r1C         [17] 8629 	call	_move_player_y
                                   8630 ;pocket_platformer.c:1204: player.vx -= treadmill_bonus;
      003841 ED 4Br14r00      [20] 8631 	ld	bc, (#(_player + 8) + 0)
      003845 ED 5Br16r00      [20] 8632 	ld	de, (#(_player + 8) + 2)
      003849 21r00r00         [10] 8633 	ld	hl, #_treadmill_bonus
      00384C 79               [ 4] 8634 	ld	a, c
      00384D 96               [ 7] 8635 	sub	a, (hl)
      00384E 23               [ 6] 8636 	inc	hl
      00384F 4F               [ 4] 8637 	ld	c, a
      003850 78               [ 4] 8638 	ld	a, b
      003851 9E               [ 7] 8639 	sbc	a, (hl)
      003852 23               [ 6] 8640 	inc	hl
      003853 47               [ 4] 8641 	ld	b, a
      003854 7B               [ 4] 8642 	ld	a, e
      003855 9E               [ 7] 8643 	sbc	a, (hl)
      003856 23               [ 6] 8644 	inc	hl
      003857 5F               [ 4] 8645 	ld	e, a
      003858 7A               [ 4] 8646 	ld	a, d
      003859 9E               [ 7] 8647 	sbc	a, (hl)
      00385A 57               [ 4] 8648 	ld	d, a
      00385B ED 43r14r00      [20] 8649 	ld	((_player + 8)), bc
      00385F ED 53r16r00      [20] 8650 	ld	((_player + 8)+2), de
                                   8651 ;pocket_platformer.c:1205: check_object_collisions();
      003863 CDr83r23         [17] 8652 	call	_check_object_collisions
                                   8653 ;pocket_platformer.c:1206: check_rb_switch();
      003866 CDr7Dr2A         [17] 8654 	call	_check_rb_switch
                                   8655 ;pocket_platformer.c:1207: update_disappearing_blocks();
      003869 CDrC1r2E         [17] 8656 	call	_update_disappearing_blocks
                                   8657 ;pocket_platformer.c:1208: update_camera();
      00386C CDrFDr33         [17] 8658 	call	_update_camera
                                   8659 ;pocket_platformer.c:1209: update_anim();
      00386F CDr08r34         [17] 8660 	call	_update_anim
                                   8661 ;pocket_platformer.c:1211: SMS_initSprites();
      003872 CDr00r00         [17] 8662 	call	_SMS_initSprites
                                   8663 ;pocket_platformer.c:1212: draw_objects();
      003875 CDr80r0B         [17] 8664 	call	_draw_objects
                                   8665 ;pocket_platformer.c:1213: draw_player();
      003878 CDr6Er0C         [17] 8666 	call	_draw_player
                                   8667 ;pocket_platformer.c:1214: SMS_finalizeSprites();
      00387B CDr00r00         [17] 8668 	call	_SMS_finalizeSprites
                                   8669 ;pocket_platformer.c:1215: SMS_copySpritestoSAT();
      00387E CDr00r00         [17] 8670 	call	_SMS_copySpritestoSAT
                                   8671 ;pocket_platformer.c:1217: if (player_died) {
      003881 3ArB1r00         [13] 8672 	ld	a, (_player_died+0)
      003884 B7               [ 4] 8673 	or	a, a
      003885 28 09            [12] 8674 	jr	Z, 00109$
                                   8675 ;pocket_platformer.c:1218: death_sequence(level_n);
      003887 DD 7E FF         [19] 8676 	ld	a, -1 (ix)
      00388A CDr6Fr37         [17] 8677 	call	_death_sequence
      00388D C3rC1r37         [10] 8678 	jp	00112$
      003890                       8679 00109$:
                                   8680 ;pocket_platformer.c:1219: } else if (level_complete) {
      003890 3ArB0r00         [13] 8681 	ld	a, (_level_complete+0)
      003893 B7               [ 4] 8682 	or	a, a
      003894 CArC1r37         [10] 8683 	jp	Z, 00112$
                                   8684 ;pocket_platformer.c:1221: for (i = 0; i < 60; i++) SMS_waitForVBlank();
      003897 0E 3C            [ 7] 8685 	ld	c, #0x3c
      003899                       8686 00116$:
      003899 C5               [11] 8687 	push	bc
      00389A CDr00r00         [17] 8688 	call	_SMS_waitForVBlank
      00389D C1               [10] 8689 	pop	bc
      00389E 0D               [ 4] 8690 	dec	c
      00389F 20 F8            [12] 8691 	jr	NZ, 00116$
                                   8692 ;pocket_platformer.c:1222: level_n = (level_n + 1 < total) ? level_n + 1 : 0;
      0038A1 DD 4E FF         [19] 8693 	ld	c, -1 (ix)
      0038A4 06 00            [ 7] 8694 	ld	b, #0x00
      0038A6 03               [ 6] 8695 	inc	bc
      0038A7 DD 5E FD         [19] 8696 	ld	e, -3 (ix)
      0038AA 16 00            [ 7] 8697 	ld	d, #0x00
      0038AC 79               [ 4] 8698 	ld	a, c
      0038AD 93               [ 4] 8699 	sub	a, e
      0038AE 78               [ 4] 8700 	ld	a, b
      0038AF 9A               [ 4] 8701 	sbc	a, d
      0038B0 E2rB5r38         [10] 8702 	jp	PO, 00167$
      0038B3 EE 80            [ 7] 8703 	xor	a, #0x80
      0038B5                       8704 00167$:
      0038B5 F2rC8r38         [10] 8705 	jp	P, 00119$
      0038B8 DD 34 FF         [23] 8706 	inc	-1 (ix)
      0038BB DD 7E FF         [19] 8707 	ld	a, -1 (ix)
      0038BE DD 77 FE         [19] 8708 	ld	-2 (ix), a
      0038C1 07               [ 4] 8709 	rlca
      0038C2 9F               [ 4] 8710 	sbc	a, a
      0038C3 DD 77 FF         [19] 8711 	ld	-1 (ix), a
      0038C6 18 07            [12] 8712 	jr	00120$
      0038C8                       8713 00119$:
      0038C8 AF               [ 4] 8714 	xor	a, a
      0038C9 DD 77 FE         [19] 8715 	ld	-2 (ix), a
      0038CC DD 77 FF         [19] 8716 	ld	-1 (ix), a
      0038CF                       8717 00120$:
      0038CF DD 7E FE         [19] 8718 	ld	a, -2 (ix)
                                   8719 ;pocket_platformer.c:1223: load_level(level_n);
      0038D2 DD 77 FF         [19] 8720 	ld	-1 (ix), a
      0038D5 CDr1Dr34         [17] 8721 	call	_load_level
                                   8722 ;pocket_platformer.c:1226: }
      0038D8 C3rC1r37         [10] 8723 	jp	00112$
                                   8724 ;pocket_platformer.c:1231: static void title_screen(void) {
                                   8725 ;	---------------------------------
                                   8726 ; Function title_screen
                                   8727 ; ---------------------------------
      0038DB                       8728 _title_screen:
                                   8729 ;pocket_platformer.c:1233: SMS_waitForVBlank();
      0038DB CDr00r00         [17] 8730 	call	_SMS_waitForVBlank
                                   8731 ;pocket_platformer.c:1234: SMS_displayOff();
      0038DE 21 40 01         [10] 8732 	ld	hl, #0x0140
      0038E1 CDr00r00         [17] 8733 	call	_SMS_VDPturnOffFeature
                                   8734 ;pocket_platformer.c:1235: SMS_VRAMmemsetW(0, 0, 16 * 1024);
      0038E4 21 00 40         [10] 8735 	ld	hl, #0x4000
      0038E7 E5               [11] 8736 	push	hl
      0038E8 11 00 00         [10] 8737 	ld	de, #0x0000
      0038EB 65               [ 4] 8738 	ld	h, l
      0038EC CDr00r00         [17] 8739 	call	_SMS_VRAMmemsetW
                                   8740 ;pocket_platformer.c:1236: SMS_zeroBGPalette();
      0038EF CDr00r00         [17] 8741 	call	_SMS_zeroBGPalette
                                   8742 ;pocket_platformer.c:1237: SMS_zeroSpritePalette();
      0038F2 CDr00r00         [17] 8743 	call	_SMS_zeroSpritePalette
                                   8744 ;pocket_platformer.c:1238: SMS_setBGPaletteColor(1, 0x3F);
      0038F5 2E 3F            [ 7] 8745 	ld	l, #0x3f
                                   8746 ;	spillPairReg hl
                                   8747 ;	spillPairReg hl
      0038F7 3E 01            [ 7] 8748 	ld	a, #0x01
      0038F9 CDr00r00         [17] 8749 	call	_SMS_setBGPaletteColor
                                   8750 ;pocket_platformer.c:1239: SMS_load1bppTiles(font_1bpp, VRAM_TILE_FONT, font_1bpp_size, 0, 1);
      0038FC 21 00 01         [10] 8751 	ld	hl, #0x100
      0038FF E5               [11] 8752 	push	hl
      003900 2Ar00r00         [16] 8753 	ld	hl, (_font_1bpp_size)
      003903 E5               [11] 8754 	push	hl
      003904 11 60 01         [10] 8755 	ld	de, #0x0160
      003907 21r00r00         [10] 8756 	ld	hl, #_font_1bpp
      00390A CDr00r00         [17] 8757 	call	_SMS_load1bppTiles
                                   8758 ;pocket_platformer.c:1240: SMS_configureTextRenderer(VRAM_TILE_FONT - 32);
      00390D 21 40 01         [10] 8759 	ld	hl, #0x0140
      003910 CDr00r00         [17] 8760 	call	_SMS_configureTextRenderer
                                   8761 ;pocket_platformer.c:1241: SMS_displayOn();
      003913 21 40 01         [10] 8762 	ld	hl, #0x0140
      003916 CDr00r00         [17] 8763 	call	_SMS_VDPturnOnFeature
                                   8764 ;pocket_platformer.c:1242: SMS_printatXY(4,  8, "POCKET PLATFORMER");
      003919 21 08 7A         [10] 8765 	ld	hl, #0x7a08
      00391C CF               [11] 8766 	rst	#0x08
      00391D 21r4Er39         [10] 8767 	ld	hl, #___str_0
      003920 CDr00r00         [17] 8768 	call	_SMS_print
                                   8769 ;pocket_platformer.c:1243: SMS_printatXY(3, 10, "for Sega Master System");
      003923 21 86 7A         [10] 8770 	ld	hl, #0x7a86
      003926 CF               [11] 8771 	rst	#0x08
      003927 21r60r39         [10] 8772 	ld	hl, #___str_1
      00392A CDr00r00         [17] 8773 	call	_SMS_print
                                   8774 ;pocket_platformer.c:1244: SMS_printatXY(4, 14, "Press 1 to start");
      00392D 21 88 7B         [10] 8775 	ld	hl, #0x7b88
      003930 CF               [11] 8776 	rst	#0x08
      003931 21r77r39         [10] 8777 	ld	hl, #___str_2
      003934 CDr00r00         [17] 8778 	call	_SMS_print
                                   8779 ;pocket_platformer.c:1245: do { SMS_waitForVBlank(); joy = SMS_getKeysStatus(); }
      003937                       8780 00110$:
      003937 CDr00r00         [17] 8781 	call	_SMS_waitForVBlank
      00393A CDr00r00         [17] 8782 	call	_SMS_getKeysStatus
      00393D 7B               [ 4] 8783 	ld	a, e
                                   8784 ;pocket_platformer.c:1246: while (!(joy & (PORT_A_KEY_1 | PORT_A_KEY_2)));
      00393E E6 30            [ 7] 8785 	and	a, #0x30
      003940 28 F5            [12] 8786 	jr	Z, 00110$
                                   8787 ;pocket_platformer.c:1247: do { SMS_waitForVBlank(); joy = SMS_getKeysStatus(); }
      003942                       8788 00113$:
      003942 CDr00r00         [17] 8789 	call	_SMS_waitForVBlank
      003945 CDr00r00         [17] 8790 	call	_SMS_getKeysStatus
      003948 7B               [ 4] 8791 	ld	a, e
                                   8792 ;pocket_platformer.c:1248: while (joy & (PORT_A_KEY_1 | PORT_A_KEY_2));
      003949 E6 30            [ 7] 8793 	and	a, #0x30
      00394B 20 F5            [12] 8794 	jr	NZ, 00113$
                                   8795 ;pocket_platformer.c:1249: }
      00394D C9               [10] 8796 	ret
      00394E                       8797 ___str_0:
      00394E 50 4F 43 4B 45 54 20  8798 	.ascii "POCKET PLATFORMER"
             50 4C 41 54 46 4F 52
             4D 45 52
      00395F 00                    8799 	.db 0x00
      003960                       8800 ___str_1:
      003960 66 6F 72 20 53 65 67  8801 	.ascii "for Sega Master System"
             61 20 4D 61 73 74 65
             72 20 53 79 73 74 65
             6D
      003976 00                    8802 	.db 0x00
      003977                       8803 ___str_2:
      003977 50 72 65 73 73 20 31  8804 	.ascii "Press 1 to start"
             20 74 6F 20 73 74 61
             72 74
      003987 00                    8805 	.db 0x00
                                   8806 ;pocket_platformer.c:1254: void main(void) {
                                   8807 ;	---------------------------------
                                   8808 ; Function main
                                   8809 ; ---------------------------------
      003988                       8810 _main::
                                   8811 ;pocket_platformer.c:1256: SMS_useFirstHalfTilesforSprites(0);
      003988 2E 00            [ 7] 8812 	ld	l, #0x00
                                   8813 ;	spillPairReg hl
                                   8814 ;	spillPairReg hl
      00398A CDr00r00         [17] 8815 	call	_SMS_useFirstHalfTilesforSprites
                                   8816 ;pocket_platformer.c:1257: SMS_setSpriteMode(SPRITEMODE_NORMAL);
      00398D 2E 00            [ 7] 8817 	ld	l, #0x00
                                   8818 ;	spillPairReg hl
                                   8819 ;	spillPairReg hl
      00398F CDr00r00         [17] 8820 	call	_SMS_setSpriteMode
                                   8821 ;pocket_platformer.c:1258: SMS_setBackdropColor(0);
      003992 2E 00            [ 7] 8822 	ld	l, #0x00
                                   8823 ;	spillPairReg hl
                                   8824 ;	spillPairReg hl
      003994 CDr00r00         [17] 8825 	call	_SMS_setBackdropColor
                                   8826 ;pocket_platformer.c:1260: while (1) {
      003997                       8827 00104$:
                                   8828 ;pocket_platformer.c:1261: title_screen();
      003997 CDrDBr38         [17] 8829 	call	_title_screen
                                   8830 ;pocket_platformer.c:1262: if (!has_resource()) continue;
      00399A CDr00r00         [17] 8831 	call	_has_resource
      00399D B7               [ 4] 8832 	or	a, a
      00399E 28 F7            [12] 8833 	jr	Z, 00104$
                                   8834 ;pocket_platformer.c:1263: init_resources();
      0039A0 CDr26r00         [17] 8835 	call	_init_resources
                                   8836 ;pocket_platformer.c:1264: SMS_waitForVBlank();
      0039A3 CDr00r00         [17] 8837 	call	_SMS_waitForVBlank
                                   8838 ;pocket_platformer.c:1265: SMS_displayOff();
      0039A6 21 40 01         [10] 8839 	ld	hl, #0x0140
      0039A9 CDr00r00         [17] 8840 	call	_SMS_VDPturnOffFeature
                                   8841 ;pocket_platformer.c:1266: SMS_VRAMmemsetW(0, 0, 16 * 1024);
      0039AC 21 00 40         [10] 8842 	ld	hl, #0x4000
      0039AF E5               [11] 8843 	push	hl
      0039B0 11 00 00         [10] 8844 	ld	de, #0x0000
      0039B3 65               [ 4] 8845 	ld	h, l
      0039B4 CDr00r00         [17] 8846 	call	_SMS_VRAMmemsetW
                                   8847 ;pocket_platformer.c:1267: load_graphics();
      0039B7 CDrC6r09         [17] 8848 	call	_load_graphics
                                   8849 ;pocket_platformer.c:1268: SMS_displayOn();
      0039BA 21 40 01         [10] 8850 	ld	hl, #0x0140
      0039BD CDr00r00         [17] 8851 	call	_SMS_VDPturnOnFeature
                                   8852 ;pocket_platformer.c:1269: gameplay_loop();
      0039C0 CDr99r37         [17] 8853 	call	_gameplay_loop
                                   8854 ;pocket_platformer.c:1271: }
      0039C3 18 D2            [12] 8855 	jr	00104$
                                   8856 	.area _CODE
      0039C5                       8857 __str_3:
      0039C5 70 6F 63 6B 65 74 2D  8858 	.ascii "pocket-platformer-sms"
             70 6C 61 74 66 6F 72
             6D 65 72 2D 73 6D 73
      0039DA 00                    8859 	.db 0x00
      0039DB                       8860 __str_4:
      0039DB 50 6F 63 6B 65 74 20  8861 	.ascii "Pocket Platformer SMS Engine"
             50 6C 61 74 66 6F 72
             6D 65 72 20 53 4D 53
             20 45 6E 67 69 6E 65
      0039F7 00                    8862 	.db 0x00
      0039F8                       8863 __str_5:
      0039F8 47 65 6E 65 72 61 74  8864 	.ascii "Generated by pocket-platformer-to-sms web exporter."
             65 64 20 62 79 20 70
             6F 63 6B 65 74 2D 70
             6C 61 74 66 6F 72 6D
             65 72 2D 74 6F 2D 73
             6D 73 20 77 65 62 20
             65 78 70 6F 72 74 65
             72 2E
      003A2B 00                    8865 	.db 0x00
                                   8866 	.area _INITIALIZER
      000000                       8867 __xinit__treadmill_bonus:
      000000 00 00 00 00           8868 	.byte #0x00, #0x00, #0x00, #0x00	;  0
                                   8869 	.area _CABS (ABS)
      007FF0                       8870 	.org 0x7FF0
      007FF0                       8871 ___SMS__SEGA_signature:
      007FF0 54                    8872 	.db #0x54	; 84	'T'
      007FF1 4D                    8873 	.db #0x4d	; 77	'M'
      007FF2 52                    8874 	.db #0x52	; 82	'R'
      007FF3 20                    8875 	.db #0x20	; 32
      007FF4 53                    8876 	.db #0x53	; 83	'S'
      007FF5 45                    8877 	.db #0x45	; 69	'E'
      007FF6 47                    8878 	.db #0x47	; 71	'G'
      007FF7 41                    8879 	.db #0x41	; 65	'A'
      007FF8 FF                    8880 	.db #0xff	; 255
      007FF9 FF                    8881 	.db #0xff	; 255
      007FFA FF                    8882 	.db #0xff	; 255
      007FFB FF                    8883 	.db #0xff	; 255
      007FFC 99                    8884 	.db #0x99	; 153
      007FFD 99                    8885 	.db #0x99	; 153
      007FFE 00                    8886 	.db #0x00	; 0
      007FFF 4C                    8887 	.db #0x4c	; 76	'L'
      007FCA                       8888 	.org 0x7FCA
      007FCA                       8889 ___SMS__SDSC_author:
      007FCA 70 6F 63 6B 65 74 2D  8890 	.ascii "pocket-platformer-sms"
             70 6C 61 74 66 6F 72
             6D 65 72 2D 73 6D 73
      007FDF 00                    8891 	.db 0x00
      007FAD                       8892 	.org 0x7FAD
      007FAD                       8893 ___SMS__SDSC_name:
      007FAD 50 6F 63 6B 65 74 20  8894 	.ascii "Pocket Platformer SMS Engine"
             50 6C 61 74 66 6F 72
             6D 65 72 20 53 4D 53
             20 45 6E 67 69 6E 65
      007FC9 00                    8895 	.db 0x00
      007F79                       8896 	.org 0x7F79
      007F79                       8897 ___SMS__SDSC_descr:
      007F79 47 65 6E 65 72 61 74  8898 	.ascii "Generated by pocket-platformer-to-sms web exporter."
             65 64 20 62 79 20 70
             6F 63 6B 65 74 2D 70
             6C 61 74 66 6F 72 6D
             65 72 2D 74 6F 2D 73
             6D 73 20 77 65 62 20
             65 78 70 6F 72 74 65
             72 2E
      007FAC 00                    8899 	.db 0x00
      007FE0                       8900 	.org 0x7FE0
      007FE0                       8901 ___SMS__SDSC_signature:
      007FE0 53                    8902 	.db #0x53	; 83	'S'
      007FE1 44                    8903 	.db #0x44	; 68	'D'
      007FE2 53                    8904 	.db #0x53	; 83	'S'
      007FE3 43                    8905 	.db #0x43	; 67	'C'
      007FE4 01                    8906 	.db #0x01	; 1
      007FE5 03                    8907 	.db #0x03	; 3
      007FE6 01                    8908 	.db #0x01	; 1
      007FE7 01                    8909 	.db #0x01	; 1
      007FE8 25                    8910 	.db #0x25	; 37
      007FE9 20                    8911 	.db #0x20	; 32
      007FEA CA                    8912 	.db #0xca	; 202
      007FEB 7F                    8913 	.db #0x7f	; 127
      007FEC AD                    8914 	.db #0xad	; 173
      007FED 7F                    8915 	.db #0x7f	; 127
      007FEE 79                    8916 	.db #0x79	; 121	'y'
      007FEF 7F                    8917 	.db #0x7f	; 127
